	.text
	.file	"blobstore.cc"
	.file	0 "/root/trading-programming/0701/demo" "blobstore.cc" md5 0x71870b055a61bb4961b0f5e76f246b0a
	.file	1 "/usr/bin/../lib/gcc/aarch64-linux-gnu/11/../../../../include/c++/11/bits" "stl_pair.h"
	.file	2 "/usr/bin/../lib/gcc/aarch64-linux-gnu/11/../../../../include/c++/11/ext" "concurrence.h"
	.file	3 "/usr/bin/../lib/gcc/aarch64-linux-gnu/11/../../../../include/c++/11/bits" "stl_tree.h"
	.file	4 "/usr/bin/../lib/gcc/aarch64-linux-gnu/11/../../../../include/aarch64-linux-gnu/c++/11/bits" "c++config.h"
	.file	5 "/usr/bin/../lib/gcc/aarch64-linux-gnu/11/../../../../include/c++/11/bits" "stl_function.h"
	.file	6 "/usr/bin/../lib/gcc/aarch64-linux-gnu/11/../../../../include/c++/11/bits" "alloc_traits.h"
	.file	7 "/usr/bin/../lib/gcc/aarch64-linux-gnu/11/../../../../include/c++/11/ext" "alloc_traits.h"
	.file	8 "/usr/bin/../lib/gcc/aarch64-linux-gnu/11/../../../../include/c++/11/ext" "aligned_buffer.h"
	.file	9 "/usr/bin/../lib/gcc/aarch64-linux-gnu/11/../../../../include/c++/11/ext" "new_allocator.h"
	.file	10 "/usr/bin/../lib/gcc/aarch64-linux-gnu/11/../../../../include/aarch64-linux-gnu/c++/11/bits" "c++allocator.h"
	.file	11 "/usr/bin/../lib/gcc/aarch64-linux-gnu/11/../../../../include/c++/11/bits" "allocator.h"
	.file	12 "/usr/bin/../lib/gcc/aarch64-linux-gnu/11/../../../../include/c++/11" "type_traits"
	.file	13 "/usr/bin/../lib/gcc/aarch64-linux-gnu/11/../../../../include/c++/11/bits" "stringfwd.h"
	.file	14 "src" "blobstore.cc"
	.file	15 "/usr/bin/../lib/gcc/aarch64-linux-gnu/11/../../../../include/c++/11/bits" "stl_set.h"
	.file	16 "/usr/bin/../lib/gcc/aarch64-linux-gnu/11/../../../../include/c++/11/bits" "functional_hash.h"
	.file	17 "/usr/bin/../lib/gcc/aarch64-linux-gnu/11/../../../../include/c++/11/bits" "hashtable_policy.h"
	.file	18 "/usr/bin/../lib/gcc/aarch64-linux-gnu/11/../../../../include/c++/11" "utility"
	.file	19 "/usr/bin/../lib/gcc/aarch64-linux-gnu/11/../../../../include/c++/11/bits" "enable_special_members.h"
	.file	20 "/usr/bin/../lib/gcc/aarch64-linux-gnu/11/../../../../include/c++/11/bits" "hashtable.h"
	.file	21 "/usr/bin/../lib/gcc/aarch64-linux-gnu/11/../../../../include/c++/11/bits" "unordered_map.h"
	.file	22 "/usr/bin/../lib/gcc/aarch64-linux-gnu/11/../../../../include/c++/11/bits" "shared_ptr_base.h"
	.file	23 "/usr/bin/../lib/gcc/aarch64-linux-gnu/11/../../../../include/aarch64-linux-gnu/c++/11/bits" "atomic_word.h"
	.file	24 "/usr/bin/../lib/gcc/aarch64-linux-gnu/11/../../../../include/c++/11" "new"
	.file	25 "/usr/bin/../lib/gcc/aarch64-linux-gnu/11/../../../../include/c++/11/bits" "shared_ptr.h"
	.file	26 "../demo/include" "blobstore.h"
	.file	27 "/usr/include/aarch64-linux-gnu/bits" "types.h"
	.file	28 "/usr/include/aarch64-linux-gnu/bits" "stdint-uintn.h"
	.file	29 "target/cxxbridge/demo/src" "main.rs.h"
	.file	30 "/usr/bin/../lib/gcc/aarch64-linux-gnu/11/../../../../include/c++/11" "tuple"
	.file	31 "/usr/bin/../lib/gcc/aarch64-linux-gnu/11/../../../../include/c++/11/bits" "uses_allocator.h"
	.file	32 "/usr/bin/../lib/gcc/aarch64-linux-gnu/11/../../../../include/c++/11/bits" "unique_ptr.h"
	.file	33 "/usr/bin/../lib/gcc/aarch64-linux-gnu/11/../../../../include/c++/11/debug" "debug.h"
	.file	34 "/usr/include" "stdlib.h"
	.file	35 "/usr/bin/../lib/gcc/aarch64-linux-gnu/11/../../../../include/c++/11/bits" "std_abs.h"
	.file	36 "/usr/bin/../lib/gcc/aarch64-linux-gnu/11/../../../../include/c++/11" "cstdlib"
	.file	37 "/usr/lib/llvm-14/lib/clang/14.0.0/include" "stddef.h"
	.file	38 "/usr/lib/llvm-14/lib/clang/14.0.0/include" "__stddef_max_align_t.h"
	.file	39 "/usr/bin/../lib/gcc/aarch64-linux-gnu/11/../../../../include/c++/11" "cstddef"
	.file	40 "/usr/include/aarch64-linux-gnu/bits" "stdint-intn.h"
	.file	41 "/usr/bin/../lib/gcc/aarch64-linux-gnu/11/../../../../include/c++/11" "cstdint"
	.file	42 "/usr/include" "stdint.h"
	.file	43 "/usr/bin/../lib/gcc/aarch64-linux-gnu/11/../../../../include/c++/11/bits" "exception_ptr.h"
	.file	44 "/usr/include/aarch64-linux-gnu/bits/types" "__mbstate_t.h"
	.file	45 "/usr/include/aarch64-linux-gnu/bits/types" "mbstate_t.h"
	.file	46 "/usr/bin/../lib/gcc/aarch64-linux-gnu/11/../../../../include/c++/11" "cwchar"
	.file	47 "/usr/include/aarch64-linux-gnu/bits/types" "wint_t.h"
	.file	48 "/usr/include" "wchar.h"
	.file	49 "/usr/include/aarch64-linux-gnu/bits/types" "__FILE.h"
	.file	50 "/usr/lib/llvm-14/lib/clang/14.0.0/include" "stdarg.h"
	.file	51 "/usr/bin/../lib/gcc/aarch64-linux-gnu/11/../../../../include/c++/11" "clocale"
	.file	52 "/usr/include" "locale.h"
	.file	53 "/usr/include" "ctype.h"
	.file	54 "/usr/bin/../lib/gcc/aarch64-linux-gnu/11/../../../../include/c++/11" "cctype"
	.file	55 "/usr/include/aarch64-linux-gnu/bits/types" "FILE.h"
	.file	56 "/usr/bin/../lib/gcc/aarch64-linux-gnu/11/../../../../include/c++/11" "cstdio"
	.file	57 "/usr/include/aarch64-linux-gnu/bits/types" "__fpos_t.h"
	.file	58 "/usr/include" "stdio.h"
	.globl	_ZN3org9blobstore15BlobstoreClientC2Ev // -- Begin function _ZN3org9blobstore15BlobstoreClientC2Ev
	.p2align	2
	.type	_ZN3org9blobstore15BlobstoreClientC2Ev,@function
_ZN3org9blobstore15BlobstoreClientC2Ev: // @_ZN3org9blobstore15BlobstoreClientC2Ev
.Lfunc_begin0:
	.loc	14 24 0                         // src/blobstore.cc:24:0
	.cfi_startproc
// %bb.0:
	sub	sp, sp, #48
	stp	x29, x30, [sp, #32]             // 16-byte Folded Spill
	add	x29, sp, #32
	.cfi_def_cfa w29, 16
	.cfi_offset w30, -8
	.cfi_offset w29, -16
	stur	x0, [x29, #-8]
	ldur	x8, [x29, #-8]
	str	x8, [sp, #8]                    // 8-byte Folded Spill
	mov	x0, #56
.Ltmp0:
	.loc	14 24 43 prologue_end           // src/blobstore.cc:24:43
	bl	_Znwm
	str	x0, [sp, #16]                   // 8-byte Folded Spill
	.loc	14 24 47 is_stmt 0              // src/blobstore.cc:24:47
	bl	_ZN3org9blobstore15BlobstoreClient4implC2Ev
	ldr	x0, [sp, #8]                    // 8-byte Folded Reload
	ldr	x1, [sp, #16]                   // 8-byte Folded Reload
	.loc	14 24 38                        // src/blobstore.cc:24:38
	bl	_ZNSt10shared_ptrIN3org9blobstore15BlobstoreClient4implEEC2IS3_vEEPT_
	.loc	14 24 77                        // src/blobstore.cc:24:77
	ldp	x29, x30, [sp, #32]             // 16-byte Folded Reload
	add	sp, sp, #48
	ret
.Ltmp1:
.Lfunc_end0:
	.size	_ZN3org9blobstore15BlobstoreClientC2Ev, .Lfunc_end0-_ZN3org9blobstore15BlobstoreClientC2Ev
	.cfi_endproc
                                        // -- End function
	.section	.text._ZN3org9blobstore15BlobstoreClient4implC2Ev,"axG",@progbits,_ZN3org9blobstore15BlobstoreClient4implC2Ev,comdat
	.weak	_ZN3org9blobstore15BlobstoreClient4implC2Ev // -- Begin function _ZN3org9blobstore15BlobstoreClient4implC2Ev
	.p2align	2
	.type	_ZN3org9blobstore15BlobstoreClient4implC2Ev,@function
_ZN3org9blobstore15BlobstoreClient4implC2Ev: // @_ZN3org9blobstore15BlobstoreClient4implC2Ev
.Lfunc_begin1:
	.loc	14 15 0 is_stmt 1               // src/blobstore.cc:15:0
	.cfi_startproc
// %bb.0:
	sub	sp, sp, #32
	stp	x29, x30, [sp, #16]             // 16-byte Folded Spill
	add	x29, sp, #16
	.cfi_def_cfa w29, 16
	.cfi_offset w30, -8
	.cfi_offset w29, -16
	str	x0, [sp, #8]
	ldr	x0, [sp, #8]
.Ltmp2:
	.loc	14 15 24 prologue_end           // src/blobstore.cc:15:24
	bl	_ZNSt13unordered_mapImN3org9blobstore15BlobstoreClient4impl4BlobESt4hashImESt8equal_toImESaISt4pairIKmS4_EEEC2Ev
	ldp	x29, x30, [sp, #16]             // 16-byte Folded Reload
	add	sp, sp, #32
	ret
.Ltmp3:
.Lfunc_end1:
	.size	_ZN3org9blobstore15BlobstoreClient4implC2Ev, .Lfunc_end1-_ZN3org9blobstore15BlobstoreClient4implC2Ev
	.cfi_endproc
                                        // -- End function
	.section	.text._ZNSt10shared_ptrIN3org9blobstore15BlobstoreClient4implEEC2IS3_vEEPT_,"axG",@progbits,_ZNSt10shared_ptrIN3org9blobstore15BlobstoreClient4implEEC2IS3_vEEPT_,comdat
	.weak	_ZNSt10shared_ptrIN3org9blobstore15BlobstoreClient4implEEC2IS3_vEEPT_ // -- Begin function _ZNSt10shared_ptrIN3org9blobstore15BlobstoreClient4implEEC2IS3_vEEPT_
	.p2align	2
	.type	_ZNSt10shared_ptrIN3org9blobstore15BlobstoreClient4implEEC2IS3_vEEPT_,@function
_ZNSt10shared_ptrIN3org9blobstore15BlobstoreClient4implEEC2IS3_vEEPT_: // @_ZNSt10shared_ptrIN3org9blobstore15BlobstoreClient4implEEC2IS3_vEEPT_
.Lfunc_begin2:
	.loc	25 160 0                        // /usr/bin/../lib/gcc/aarch64-linux-gnu/11/../../../../include/c++/11/bits/shared_ptr.h:160:0
	.cfi_startproc
// %bb.0:
	sub	sp, sp, #32
	stp	x29, x30, [sp, #16]             // 16-byte Folded Spill
	add	x29, sp, #16
	.cfi_def_cfa w29, 16
	.cfi_offset w30, -8
	.cfi_offset w29, -16
	str	x0, [sp, #8]
	str	x1, [sp]
	ldr	x0, [sp, #8]
.Ltmp4:
	.loc	25 160 43 prologue_end          // /usr/bin/../lib/gcc/aarch64-linux-gnu/11/../../../../include/c++/11/bits/shared_ptr.h:160:43
	ldr	x1, [sp]
	.loc	25 160 25 is_stmt 0             // /usr/bin/../lib/gcc/aarch64-linux-gnu/11/../../../../include/c++/11/bits/shared_ptr.h:160:25
	bl	_ZNSt12__shared_ptrIN3org9blobstore15BlobstoreClient4implELN9__gnu_cxx12_Lock_policyE2EEC2IS3_vEEPT_
	.loc	25 160 50                       // /usr/bin/../lib/gcc/aarch64-linux-gnu/11/../../../../include/c++/11/bits/shared_ptr.h:160:50
	ldp	x29, x30, [sp, #16]             // 16-byte Folded Reload
	add	sp, sp, #32
	ret
.Ltmp5:
.Lfunc_end2:
	.size	_ZNSt10shared_ptrIN3org9blobstore15BlobstoreClient4implEEC2IS3_vEEPT_, .Lfunc_end2-_ZNSt10shared_ptrIN3org9blobstore15BlobstoreClient4implEEC2IS3_vEEPT_
	.cfi_endproc
                                        // -- End function
	.text
	.globl	_ZNK3org9blobstore15BlobstoreClient3putERNS0_8MultiBufE // -- Begin function _ZNK3org9blobstore15BlobstoreClient3putERNS0_8MultiBufE
	.p2align	2
	.type	_ZNK3org9blobstore15BlobstoreClient3putERNS0_8MultiBufE,@function
_ZNK3org9blobstore15BlobstoreClient3putERNS0_8MultiBufE: // @_ZNK3org9blobstore15BlobstoreClient3putERNS0_8MultiBufE
.Lfunc_begin3:
	.loc	14 27 0 is_stmt 1               // src/blobstore.cc:27:0
	.cfi_startproc
	.cfi_personality 156, DW.ref.__gxx_personality_v0
	.cfi_lsda 28, .Lexception0
// %bb.0:
	sub	sp, sp, #288
	stp	x29, x30, [sp, #256]            // 16-byte Folded Spill
	str	x28, [sp, #272]                 // 8-byte Folded Spill
	add	x29, sp, #256
	.cfi_def_cfa w29, 32
	.cfi_offset w28, -16
	.cfi_offset w30, -24
	.cfi_offset w29, -32
	stur	x0, [x29, #-8]
	stur	x1, [x29, #-16]
	ldur	x8, [x29, #-8]
	str	x8, [sp, #72]                   // 8-byte Folded Spill
	sub	x0, x29, #48
.Ltmp12:
	.loc	14 28 15 prologue_end           // src/blobstore.cc:28:15
	bl	_ZNSt7__cxx1112basic_stringIcSt11char_traitsIcESaIcEEC1Ev
	.loc	14 33 3                         // src/blobstore.cc:33:3
	b	.LBB3_1
.LBB3_1:                                // =>This Inner Loop Header: Depth=1
	b	.LBB3_2
.LBB3_2:                                //   in Loop: Header=BB3_1 Depth=1
.Ltmp13:
	.loc	14 34 29                        // src/blobstore.cc:34:29
	ldur	x0, [x29, #-16]
	.loc	14 34 18 is_stmt 0              // src/blobstore.cc:34:18
	bl	_ZN3org9blobstore10next_chunkERNS0_8MultiBufE
	mov	x8, x0
	sub	x0, x29, #64
	stur	x8, [x29, #-64]
	stur	x1, [x29, #-56]
.Ltmp14:
	.loc	14 35 15 is_stmt 1              // src/blobstore.cc:35:15
	bl	_ZNK4rust10cxxbridge15SliceIKhE4sizeEv
.Ltmp15:
	.loc	14 35 9 is_stmt 0               // src/blobstore.cc:35:9
	cbnz	x0, .LBB3_4
	b	.LBB3_3
.LBB3_3:
.Ltmp16:
	.loc	14 36 7 is_stmt 1               // src/blobstore.cc:36:7
	b	.LBB3_7
.Ltmp17:
.LBB3_4:                                //   in Loop: Header=BB3_1 Depth=1
	.loc	14 0 7 is_stmt 0                // src/blobstore.cc:0:7
	sub	x0, x29, #64
	str	x0, [sp, #56]                   // 8-byte Folded Spill
	.loc	14 38 58 is_stmt 1              // src/blobstore.cc:38:58
	bl	_ZNK4rust10cxxbridge15SliceIKhE4dataEv
	mov	x1, x0
	ldr	x0, [sp, #56]                   // 8-byte Folded Reload
	str	x1, [sp, #64]                   // 8-byte Folded Spill
	.loc	14 38 73 is_stmt 0              // src/blobstore.cc:38:73
	bl	_ZNK4rust10cxxbridge15SliceIKhE4sizeEv
	ldr	x1, [sp, #64]                   // 8-byte Folded Reload
	mov	x2, x0
.Ltmp6:
	sub	x0, x29, #48
	.loc	14 38 14                        // src/blobstore.cc:38:14
	bl	_ZNSt7__cxx1112basic_stringIcSt11char_traitsIcESaIcEE6appendEPKcm
.Ltmp7:
	b	.LBB3_5
.Ltmp18:
.LBB3_5:                                //   in Loop: Header=BB3_1 Depth=1
	.loc	14 33 3 is_stmt 1               // src/blobstore.cc:33:3
	b	.LBB3_1
.LBB3_6:
.Ltmp8:
.Ltmp19:
	.loc	14 45 1                         // src/blobstore.cc:45:1
	mov	w8, w1
	stur	x0, [x29, #-72]
	stur	w8, [x29, #-76]
	b	.LBB3_10
.Ltmp20:
.LBB3_7:
	.loc	14 0 1 is_stmt 0                // src/blobstore.cc:0:1
	sub	x0, x29, #89
	sub	x1, x29, #48
	str	x1, [sp, #16]                   // 8-byte Folded Spill
	.loc	14 42 17 is_stmt 1              // src/blobstore.cc:42:17
	bl	_ZNKSt4hashINSt7__cxx1112basic_stringIcSt11char_traitsIcESaIcEEEEclERKS5_
	mov	x8, x0
	ldr	x0, [sp, #16]                   // 8-byte Folded Reload
	sub	x9, x29, #88
	str	x9, [sp, #40]                   // 8-byte Folded Spill
	.loc	14 42 8 is_stmt 0               // src/blobstore.cc:42:8
	stur	x8, [x29, #-88]
	.loc	14 43 26 is_stmt 1              // src/blobstore.cc:43:26
	bl	_ZSt4moveIRNSt7__cxx1112basic_stringIcSt11char_traitsIcESaIcEEEEONSt16remove_referenceIT_E4typeEOS8_
	mov	x1, x0
	add	x0, sp, #80
	str	x0, [sp, #24]                   // 8-byte Folded Spill
	bl	_ZNSt7__cxx1112basic_stringIcSt11char_traitsIcESaIcEEC1EOS4_
	ldr	x8, [sp, #24]                   // 8-byte Folded Reload
	.loc	14 43 25 is_stmt 0              // src/blobstore.cc:43:25
	add	x0, x8, #32
	str	x0, [sp, #32]                   // 8-byte Folded Spill
	mov	w1, wzr
	mov	x2, #48
	.loc	14 43 47                        // src/blobstore.cc:43:47
	bl	memset
	ldr	x0, [sp, #32]                   // 8-byte Folded Reload
	bl	_ZNSt3setINSt7__cxx1112basic_stringIcSt11char_traitsIcESaIcEEESt4lessIS5_ESaIS5_EEC2Ev
	ldr	x0, [sp, #72]                   // 8-byte Folded Reload
	.loc	14 43 3                         // src/blobstore.cc:43:3
	bl	_ZNKSt19__shared_ptr_accessIN3org9blobstore15BlobstoreClient4implELN9__gnu_cxx12_Lock_policyE2ELb0ELb0EEptEv
	ldr	x1, [sp, #40]                   // 8-byte Folded Reload
.Ltmp9:
	bl	_ZNSt13unordered_mapImN3org9blobstore15BlobstoreClient4impl4BlobESt4hashImESt8equal_toImESaISt4pairIKmS4_EEEixERSA_
	str	x0, [sp, #48]                   // 8-byte Folded Spill
.Ltmp10:
	b	.LBB3_8
.LBB3_8:
	.loc	14 0 3                          // src/blobstore.cc:0:3
	ldr	x0, [sp, #48]                   // 8-byte Folded Reload
	add	x1, sp, #80
	str	x1, [sp]                        // 8-byte Folded Spill
	.loc	14 43 23                        // src/blobstore.cc:43:23
	bl	_ZN3org9blobstore15BlobstoreClient4impl4BlobaSEOS3_
	ldr	x0, [sp]                        // 8-byte Folded Reload
	.loc	14 43 3                         // src/blobstore.cc:43:3
	bl	_ZN3org9blobstore15BlobstoreClient4impl4BlobD2Ev
	.loc	14 44 10 is_stmt 1              // src/blobstore.cc:44:10
	ldur	x8, [x29, #-88]
	str	x8, [sp, #8]                    // 8-byte Folded Spill
	sub	x0, x29, #48
	.loc	14 45 1                         // src/blobstore.cc:45:1
	bl	_ZNSt7__cxx1112basic_stringIcSt11char_traitsIcESaIcEED1Ev
	ldr	x0, [sp, #8]                    // 8-byte Folded Reload
	ldr	x28, [sp, #272]                 // 8-byte Folded Reload
	ldp	x29, x30, [sp, #256]            // 16-byte Folded Reload
	add	sp, sp, #288
	ret
.LBB3_9:
.Ltmp11:
	mov	w8, w1
	stur	x0, [x29, #-72]
	stur	w8, [x29, #-76]
	add	x0, sp, #80
	.loc	14 43 3                         // src/blobstore.cc:43:3
	bl	_ZN3org9blobstore15BlobstoreClient4impl4BlobD2Ev
	b	.LBB3_10
.LBB3_10:
	.loc	14 0 3 is_stmt 0                // src/blobstore.cc:0:3
	sub	x0, x29, #48
	.loc	14 45 1 is_stmt 1               // src/blobstore.cc:45:1
	bl	_ZNSt7__cxx1112basic_stringIcSt11char_traitsIcESaIcEED1Ev
	b	.LBB3_11
.LBB3_11:
	ldur	x0, [x29, #-72]
	bl	_Unwind_Resume
.Ltmp21:
.Lfunc_end3:
	.size	_ZNK3org9blobstore15BlobstoreClient3putERNS0_8MultiBufE, .Lfunc_end3-_ZNK3org9blobstore15BlobstoreClient3putERNS0_8MultiBufE
	.cfi_endproc
	.section	.gcc_except_table,"a",@progbits
	.p2align	2
GCC_except_table3:
.Lexception0:
	.byte	255                             // @LPStart Encoding = omit
	.byte	255                             // @TType Encoding = omit
	.byte	1                               // Call site Encoding = uleb128
	.uleb128 .Lcst_end0-.Lcst_begin0
.Lcst_begin0:
	.uleb128 .Ltmp6-.Lfunc_begin3           // >> Call Site 1 <<
	.uleb128 .Ltmp7-.Ltmp6                  //   Call between .Ltmp6 and .Ltmp7
	.uleb128 .Ltmp8-.Lfunc_begin3           //     jumps to .Ltmp8
	.byte	0                               //   On action: cleanup
	.uleb128 .Ltmp7-.Lfunc_begin3           // >> Call Site 2 <<
	.uleb128 .Ltmp9-.Ltmp7                  //   Call between .Ltmp7 and .Ltmp9
	.byte	0                               //     has no landing pad
	.byte	0                               //   On action: cleanup
	.uleb128 .Ltmp9-.Lfunc_begin3           // >> Call Site 3 <<
	.uleb128 .Ltmp10-.Ltmp9                 //   Call between .Ltmp9 and .Ltmp10
	.uleb128 .Ltmp11-.Lfunc_begin3          //     jumps to .Ltmp11
	.byte	0                               //   On action: cleanup
	.uleb128 .Ltmp10-.Lfunc_begin3          // >> Call Site 4 <<
	.uleb128 .Lfunc_end3-.Ltmp10            //   Call between .Ltmp10 and .Lfunc_end3
	.byte	0                               //     has no landing pad
	.byte	0                               //   On action: cleanup
.Lcst_end0:
	.p2align	2
                                        // -- End function
	.section	.text._ZNK4rust10cxxbridge15SliceIKhE4sizeEv,"axG",@progbits,_ZNK4rust10cxxbridge15SliceIKhE4sizeEv,comdat
	.weak	_ZNK4rust10cxxbridge15SliceIKhE4sizeEv // -- Begin function _ZNK4rust10cxxbridge15SliceIKhE4sizeEv
	.p2align	2
	.type	_ZNK4rust10cxxbridge15SliceIKhE4sizeEv,@function
_ZNK4rust10cxxbridge15SliceIKhE4sizeEv: // @_ZNK4rust10cxxbridge15SliceIKhE4sizeEv
.Lfunc_begin4:
	.file	59 "target/cxxbridge/rust" "cxx.h"
	.loc	59 541 0                        // target/cxxbridge/rust/cxx.h:541:0
	.cfi_startproc
// %bb.0:
	sub	sp, sp, #32
	stp	x29, x30, [sp, #16]             // 16-byte Folded Spill
	add	x29, sp, #16
	.cfi_def_cfa w29, 16
	.cfi_offset w30, -8
	.cfi_offset w29, -16
	str	x0, [sp, #8]
	ldr	x0, [sp, #8]
.Ltmp22:
	.loc	59 542 10 prologue_end          // target/cxxbridge/rust/cxx.h:542:10
	bl	_ZN4rust10cxxbridge18sliceLenEPKv
	.loc	59 542 3 is_stmt 0              // target/cxxbridge/rust/cxx.h:542:3
	ldp	x29, x30, [sp, #16]             // 16-byte Folded Reload
	add	sp, sp, #32
	ret
.Ltmp23:
.Lfunc_end4:
	.size	_ZNK4rust10cxxbridge15SliceIKhE4sizeEv, .Lfunc_end4-_ZNK4rust10cxxbridge15SliceIKhE4sizeEv
	.cfi_endproc
                                        // -- End function
	.section	.text._ZNK4rust10cxxbridge15SliceIKhE4dataEv,"axG",@progbits,_ZNK4rust10cxxbridge15SliceIKhE4dataEv,comdat
	.weak	_ZNK4rust10cxxbridge15SliceIKhE4dataEv // -- Begin function _ZNK4rust10cxxbridge15SliceIKhE4dataEv
	.p2align	2
	.type	_ZNK4rust10cxxbridge15SliceIKhE4dataEv,@function
_ZNK4rust10cxxbridge15SliceIKhE4dataEv: // @_ZNK4rust10cxxbridge15SliceIKhE4dataEv
.Lfunc_begin5:
	.loc	59 536 0 is_stmt 1              // target/cxxbridge/rust/cxx.h:536:0
	.cfi_startproc
// %bb.0:
	sub	sp, sp, #32
	stp	x29, x30, [sp, #16]             // 16-byte Folded Spill
	add	x29, sp, #16
	.cfi_def_cfa w29, 16
	.cfi_offset w30, -8
	.cfi_offset w29, -16
	str	x0, [sp, #8]
	ldr	x0, [sp, #8]
.Ltmp24:
	.loc	59 537 32 prologue_end          // target/cxxbridge/rust/cxx.h:537:32
	bl	_ZN4rust10cxxbridge18slicePtrEPKv
	.loc	59 537 3 is_stmt 0              // target/cxxbridge/rust/cxx.h:537:3
	ldp	x29, x30, [sp, #16]             // 16-byte Folded Reload
	add	sp, sp, #32
	ret
.Ltmp25:
.Lfunc_end5:
	.size	_ZNK4rust10cxxbridge15SliceIKhE4dataEv, .Lfunc_end5-_ZNK4rust10cxxbridge15SliceIKhE4dataEv
	.cfi_endproc
                                        // -- End function
	.section	.text._ZNKSt4hashINSt7__cxx1112basic_stringIcSt11char_traitsIcESaIcEEEEclERKS5_,"axG",@progbits,_ZNKSt4hashINSt7__cxx1112basic_stringIcSt11char_traitsIcESaIcEEEEclERKS5_,comdat
	.weak	_ZNKSt4hashINSt7__cxx1112basic_stringIcSt11char_traitsIcESaIcEEEEclERKS5_ // -- Begin function _ZNKSt4hashINSt7__cxx1112basic_stringIcSt11char_traitsIcESaIcEEEEclERKS5_
	.p2align	2
	.type	_ZNKSt4hashINSt7__cxx1112basic_stringIcSt11char_traitsIcESaIcEEEEclERKS5_,@function
_ZNKSt4hashINSt7__cxx1112basic_stringIcSt11char_traitsIcESaIcEEEEclERKS5_: // @_ZNKSt4hashINSt7__cxx1112basic_stringIcSt11char_traitsIcESaIcEEEEclERKS5_
.Lfunc_begin6:
	.file	60 "/usr/bin/../lib/gcc/aarch64-linux-gnu/11/../../../../include/c++/11/bits" "basic_string.h"
	.loc	60 6876 0 is_stmt 1             // /usr/bin/../lib/gcc/aarch64-linux-gnu/11/../../../../include/c++/11/bits/basic_string.h:6876:0
	.cfi_startproc
	.cfi_personality 156, DW.ref.__gxx_personality_v0
	.cfi_lsda 28, .Lexception1
// %bb.0:
	sub	sp, sp, #48
	stp	x29, x30, [sp, #32]             // 16-byte Folded Spill
	add	x29, sp, #32
	.cfi_def_cfa w29, 16
	.cfi_offset w30, -8
	.cfi_offset w29, -16
	stur	x0, [x29, #-8]
	str	x1, [sp, #16]
.Ltmp29:
	.loc	60 6876 38 prologue_end         // /usr/bin/../lib/gcc/aarch64-linux-gnu/11/../../../../include/c++/11/bits/basic_string.h:6876:38
	ldr	x0, [sp, #16]
	.loc	60 6876 42 is_stmt 0            // /usr/bin/../lib/gcc/aarch64-linux-gnu/11/../../../../include/c++/11/bits/basic_string.h:6876:42
	bl	_ZNKSt7__cxx1112basic_stringIcSt11char_traitsIcESaIcEE4dataEv
	str	x0, [sp]                        // 8-byte Folded Spill
	.loc	60 6876 50                      // /usr/bin/../lib/gcc/aarch64-linux-gnu/11/../../../../include/c++/11/bits/basic_string.h:6876:50
	ldr	x0, [sp, #16]
	.loc	60 6876 54                      // /usr/bin/../lib/gcc/aarch64-linux-gnu/11/../../../../include/c++/11/bits/basic_string.h:6876:54
	bl	_ZNKSt7__cxx1112basic_stringIcSt11char_traitsIcESaIcEE6lengthEv
	mov	x1, x0
	ldr	x0, [sp]                        // 8-byte Folded Reload
.Ltmp26:
	mov	x2, #26887
	movk	x2, #50959, lsl #16
	.loc	60 6876 16                      // /usr/bin/../lib/gcc/aarch64-linux-gnu/11/../../../../include/c++/11/bits/basic_string.h:6876:16
	bl	_ZNSt10_Hash_impl4hashEPKvmm
	str	x0, [sp, #8]                    // 8-byte Folded Spill
.Ltmp27:
	b	.LBB6_1
.LBB6_1:
	.loc	60 0 16                         // /usr/bin/../lib/gcc/aarch64-linux-gnu/11/../../../../include/c++/11/bits/basic_string.h:0:16
	ldr	x0, [sp, #8]                    // 8-byte Folded Reload
	.loc	60 6876 9                       // /usr/bin/../lib/gcc/aarch64-linux-gnu/11/../../../../include/c++/11/bits/basic_string.h:6876:9
	ldp	x29, x30, [sp, #32]             // 16-byte Folded Reload
	add	sp, sp, #48
	ret
.LBB6_2:
.Ltmp28:
	.loc	60 6876 16                      // /usr/bin/../lib/gcc/aarch64-linux-gnu/11/../../../../include/c++/11/bits/basic_string.h:6876:16
	bl	__clang_call_terminate
.Ltmp30:
.Lfunc_end6:
	.size	_ZNKSt4hashINSt7__cxx1112basic_stringIcSt11char_traitsIcESaIcEEEEclERKS5_, .Lfunc_end6-_ZNKSt4hashINSt7__cxx1112basic_stringIcSt11char_traitsIcESaIcEEEEclERKS5_
	.cfi_endproc
	.section	.gcc_except_table._ZNKSt4hashINSt7__cxx1112basic_stringIcSt11char_traitsIcESaIcEEEEclERKS5_,"aG",@progbits,_ZNKSt4hashINSt7__cxx1112basic_stringIcSt11char_traitsIcESaIcEEEEclERKS5_,comdat
	.p2align	2
GCC_except_table6:
.Lexception1:
	.byte	255                             // @LPStart Encoding = omit
	.byte	156                             // @TType Encoding = indirect pcrel sdata8
	.uleb128 .Lttbase0-.Lttbaseref0
.Lttbaseref0:
	.byte	1                               // Call site Encoding = uleb128
	.uleb128 .Lcst_end1-.Lcst_begin1
.Lcst_begin1:
	.uleb128 .Ltmp26-.Lfunc_begin6          // >> Call Site 1 <<
	.uleb128 .Ltmp27-.Ltmp26                //   Call between .Ltmp26 and .Ltmp27
	.uleb128 .Ltmp28-.Lfunc_begin6          //     jumps to .Ltmp28
	.byte	1                               //   On action: 1
.Lcst_end1:
	.byte	1                               // >> Action Record 1 <<
                                        //   Catch TypeInfo 1
	.byte	0                               //   No further actions
	.p2align	2
                                        // >> Catch TypeInfos <<
	.xword	0                               // TypeInfo 1
.Lttbase0:
	.p2align	2
                                        // -- End function
	.section	.text._ZSt4moveIRNSt7__cxx1112basic_stringIcSt11char_traitsIcESaIcEEEEONSt16remove_referenceIT_E4typeEOS8_,"axG",@progbits,_ZSt4moveIRNSt7__cxx1112basic_stringIcSt11char_traitsIcESaIcEEEEONSt16remove_referenceIT_E4typeEOS8_,comdat
	.weak	_ZSt4moveIRNSt7__cxx1112basic_stringIcSt11char_traitsIcESaIcEEEEONSt16remove_referenceIT_E4typeEOS8_ // -- Begin function _ZSt4moveIRNSt7__cxx1112basic_stringIcSt11char_traitsIcESaIcEEEEONSt16remove_referenceIT_E4typeEOS8_
	.p2align	2
	.type	_ZSt4moveIRNSt7__cxx1112basic_stringIcSt11char_traitsIcESaIcEEEEONSt16remove_referenceIT_E4typeEOS8_,@function
_ZSt4moveIRNSt7__cxx1112basic_stringIcSt11char_traitsIcESaIcEEEEONSt16remove_referenceIT_E4typeEOS8_: // @_ZSt4moveIRNSt7__cxx1112basic_stringIcSt11char_traitsIcESaIcEEEEONSt16remove_referenceIT_E4typeEOS8_
.Lfunc_begin7:
	.file	61 "/usr/bin/../lib/gcc/aarch64-linux-gnu/11/../../../../include/c++/11/bits" "move.h"
	.loc	61 105 0 is_stmt 1              // /usr/bin/../lib/gcc/aarch64-linux-gnu/11/../../../../include/c++/11/bits/move.h:105:0
	.cfi_startproc
// %bb.0:
	sub	sp, sp, #16
	.cfi_def_cfa_offset 16
	str	x0, [sp, #8]
.Ltmp32:
	.loc	61 105 71 prologue_end          // /usr/bin/../lib/gcc/aarch64-linux-gnu/11/../../../../include/c++/11/bits/move.h:105:71
	ldr	x0, [sp, #8]
	.loc	61 105 7 is_stmt 0              // /usr/bin/../lib/gcc/aarch64-linux-gnu/11/../../../../include/c++/11/bits/move.h:105:7
	add	sp, sp, #16
	ret
.Ltmp33:
.Lfunc_end7:
	.size	_ZSt4moveIRNSt7__cxx1112basic_stringIcSt11char_traitsIcESaIcEEEEONSt16remove_referenceIT_E4typeEOS8_, .Lfunc_end7-_ZSt4moveIRNSt7__cxx1112basic_stringIcSt11char_traitsIcESaIcEEEEONSt16remove_referenceIT_E4typeEOS8_
	.cfi_endproc
                                        // -- End function
	.section	.text._ZNSt3setINSt7__cxx1112basic_stringIcSt11char_traitsIcESaIcEEESt4lessIS5_ESaIS5_EEC2Ev,"axG",@progbits,_ZNSt3setINSt7__cxx1112basic_stringIcSt11char_traitsIcESaIcEEESt4lessIS5_ESaIS5_EEC2Ev,comdat
	.weak	_ZNSt3setINSt7__cxx1112basic_stringIcSt11char_traitsIcESaIcEEESt4lessIS5_ESaIS5_EEC2Ev // -- Begin function _ZNSt3setINSt7__cxx1112basic_stringIcSt11char_traitsIcESaIcEEESt4lessIS5_ESaIS5_EEC2Ev
	.p2align	2
	.type	_ZNSt3setINSt7__cxx1112basic_stringIcSt11char_traitsIcESaIcEEESt4lessIS5_ESaIS5_EEC2Ev,@function
_ZNSt3setINSt7__cxx1112basic_stringIcSt11char_traitsIcESaIcEEESt4lessIS5_ESaIS5_EEC2Ev: // @_ZNSt3setINSt7__cxx1112basic_stringIcSt11char_traitsIcESaIcEEESt4lessIS5_ESaIS5_EEC2Ev
.Lfunc_begin8:
	.loc	15 167 0 is_stmt 1              // /usr/bin/../lib/gcc/aarch64-linux-gnu/11/../../../../include/c++/11/bits/stl_set.h:167:0
	.cfi_startproc
// %bb.0:
	sub	sp, sp, #32
	stp	x29, x30, [sp, #16]             // 16-byte Folded Spill
	add	x29, sp, #16
	.cfi_def_cfa w29, 16
	.cfi_offset w30, -8
	.cfi_offset w29, -16
	str	x0, [sp, #8]
	ldr	x0, [sp, #8]
.Ltmp34:
	.loc	15 167 7 prologue_end           // /usr/bin/../lib/gcc/aarch64-linux-gnu/11/../../../../include/c++/11/bits/stl_set.h:167:7
	bl	_ZNSt8_Rb_treeINSt7__cxx1112basic_stringIcSt11char_traitsIcESaIcEEES5_St9_IdentityIS5_ESt4lessIS5_ESaIS5_EEC2Ev
	.loc	15 167 21 is_stmt 0             // /usr/bin/../lib/gcc/aarch64-linux-gnu/11/../../../../include/c++/11/bits/stl_set.h:167:21
	ldp	x29, x30, [sp, #16]             // 16-byte Folded Reload
	add	sp, sp, #32
	ret
.Ltmp35:
.Lfunc_end8:
	.size	_ZNSt3setINSt7__cxx1112basic_stringIcSt11char_traitsIcESaIcEEESt4lessIS5_ESaIS5_EEC2Ev, .Lfunc_end8-_ZNSt3setINSt7__cxx1112basic_stringIcSt11char_traitsIcESaIcEEESt4lessIS5_ESaIS5_EEC2Ev
	.cfi_endproc
                                        // -- End function
	.section	.text._ZNKSt19__shared_ptr_accessIN3org9blobstore15BlobstoreClient4implELN9__gnu_cxx12_Lock_policyE2ELb0ELb0EEptEv,"axG",@progbits,_ZNKSt19__shared_ptr_accessIN3org9blobstore15BlobstoreClient4implELN9__gnu_cxx12_Lock_policyE2ELb0ELb0EEptEv,comdat
	.weak	_ZNKSt19__shared_ptr_accessIN3org9blobstore15BlobstoreClient4implELN9__gnu_cxx12_Lock_policyE2ELb0ELb0EEptEv // -- Begin function _ZNKSt19__shared_ptr_accessIN3org9blobstore15BlobstoreClient4implELN9__gnu_cxx12_Lock_policyE2ELb0ELb0EEptEv
	.p2align	2
	.type	_ZNKSt19__shared_ptr_accessIN3org9blobstore15BlobstoreClient4implELN9__gnu_cxx12_Lock_policyE2ELb0ELb0EEptEv,@function
_ZNKSt19__shared_ptr_accessIN3org9blobstore15BlobstoreClient4implELN9__gnu_cxx12_Lock_policyE2ELb0ELb0EEptEv: // @_ZNKSt19__shared_ptr_accessIN3org9blobstore15BlobstoreClient4implELN9__gnu_cxx12_Lock_policyE2ELb0ELb0EEptEv
.Lfunc_begin9:
	.loc	22 985 0 is_stmt 1              // /usr/bin/../lib/gcc/aarch64-linux-gnu/11/../../../../include/c++/11/bits/shared_ptr_base.h:985:0
	.cfi_startproc
// %bb.0:
	sub	sp, sp, #32
	stp	x29, x30, [sp, #16]             // 16-byte Folded Spill
	add	x29, sp, #16
	.cfi_def_cfa w29, 16
	.cfi_offset w30, -8
	.cfi_offset w29, -16
	str	x0, [sp, #8]
	ldr	x0, [sp, #8]
.Ltmp36:
	.loc	22 987 9 prologue_end           // /usr/bin/../lib/gcc/aarch64-linux-gnu/11/../../../../include/c++/11/bits/shared_ptr_base.h:987:9
	bl	_ZNKSt19__shared_ptr_accessIN3org9blobstore15BlobstoreClient4implELN9__gnu_cxx12_Lock_policyE2ELb0ELb0EE6_M_getEv
	.loc	22 987 2 is_stmt 0              // /usr/bin/../lib/gcc/aarch64-linux-gnu/11/../../../../include/c++/11/bits/shared_ptr_base.h:987:2
	ldp	x29, x30, [sp, #16]             // 16-byte Folded Reload
	add	sp, sp, #32
	ret
.Ltmp37:
.Lfunc_end9:
	.size	_ZNKSt19__shared_ptr_accessIN3org9blobstore15BlobstoreClient4implELN9__gnu_cxx12_Lock_policyE2ELb0ELb0EEptEv, .Lfunc_end9-_ZNKSt19__shared_ptr_accessIN3org9blobstore15BlobstoreClient4implELN9__gnu_cxx12_Lock_policyE2ELb0ELb0EEptEv
	.cfi_endproc
                                        // -- End function
	.section	.text._ZNSt13unordered_mapImN3org9blobstore15BlobstoreClient4impl4BlobESt4hashImESt8equal_toImESaISt4pairIKmS4_EEEixERSA_,"axG",@progbits,_ZNSt13unordered_mapImN3org9blobstore15BlobstoreClient4impl4BlobESt4hashImESt8equal_toImESaISt4pairIKmS4_EEEixERSA_,comdat
	.weak	_ZNSt13unordered_mapImN3org9blobstore15BlobstoreClient4impl4BlobESt4hashImESt8equal_toImESaISt4pairIKmS4_EEEixERSA_ // -- Begin function _ZNSt13unordered_mapImN3org9blobstore15BlobstoreClient4impl4BlobESt4hashImESt8equal_toImESaISt4pairIKmS4_EEEixERSA_
	.p2align	2
	.type	_ZNSt13unordered_mapImN3org9blobstore15BlobstoreClient4impl4BlobESt4hashImESt8equal_toImESaISt4pairIKmS4_EEEixERSA_,@function
_ZNSt13unordered_mapImN3org9blobstore15BlobstoreClient4impl4BlobESt4hashImESt8equal_toImESaISt4pairIKmS4_EEEixERSA_: // @_ZNSt13unordered_mapImN3org9blobstore15BlobstoreClient4impl4BlobESt4hashImESt8equal_toImESaISt4pairIKmS4_EEEixERSA_
.Lfunc_begin10:
	.loc	21 980 0 is_stmt 1              // /usr/bin/../lib/gcc/aarch64-linux-gnu/11/../../../../include/c++/11/bits/unordered_map.h:980:0
	.cfi_startproc
// %bb.0:
	sub	sp, sp, #32
	stp	x29, x30, [sp, #16]             // 16-byte Folded Spill
	add	x29, sp, #16
	.cfi_def_cfa w29, 16
	.cfi_offset w30, -8
	.cfi_offset w29, -16
	str	x0, [sp, #8]
	str	x1, [sp]
	ldr	x0, [sp, #8]
.Ltmp38:
	.loc	21 980 21 prologue_end          // /usr/bin/../lib/gcc/aarch64-linux-gnu/11/../../../../include/c++/11/bits/unordered_map.h:980:21
	ldr	x1, [sp]
	.loc	21 980 16 is_stmt 0             // /usr/bin/../lib/gcc/aarch64-linux-gnu/11/../../../../include/c++/11/bits/unordered_map.h:980:16
	bl	_ZNSt8__detail9_Map_baseImSt4pairIKmN3org9blobstore15BlobstoreClient4impl4BlobEESaIS8_ENS_10_Select1stESt8equal_toImESt4hashImENS_18_Mod_range_hashingENS_20_Default_ranged_hashENS_20_Prime_rehash_policyENS_17_Hashtable_traitsILb0ELb0ELb1EEELb1EEixERS2_
	.loc	21 980 9                        // /usr/bin/../lib/gcc/aarch64-linux-gnu/11/../../../../include/c++/11/bits/unordered_map.h:980:9
	ldp	x29, x30, [sp, #16]             // 16-byte Folded Reload
	add	sp, sp, #32
	ret
.Ltmp39:
.Lfunc_end10:
	.size	_ZNSt13unordered_mapImN3org9blobstore15BlobstoreClient4impl4BlobESt4hashImESt8equal_toImESaISt4pairIKmS4_EEEixERSA_, .Lfunc_end10-_ZNSt13unordered_mapImN3org9blobstore15BlobstoreClient4impl4BlobESt4hashImESt8equal_toImESaISt4pairIKmS4_EEEixERSA_
	.cfi_endproc
                                        // -- End function
	.section	.text._ZN3org9blobstore15BlobstoreClient4impl4BlobaSEOS3_,"axG",@progbits,_ZN3org9blobstore15BlobstoreClient4impl4BlobaSEOS3_,comdat
	.weak	_ZN3org9blobstore15BlobstoreClient4impl4BlobaSEOS3_ // -- Begin function _ZN3org9blobstore15BlobstoreClient4impl4BlobaSEOS3_
	.p2align	2
	.type	_ZN3org9blobstore15BlobstoreClient4impl4BlobaSEOS3_,@function
_ZN3org9blobstore15BlobstoreClient4impl4BlobaSEOS3_: // @_ZN3org9blobstore15BlobstoreClient4impl4BlobaSEOS3_
.Lfunc_begin11:
	.loc	14 17 0 is_stmt 1               // src/blobstore.cc:17:0
	.cfi_startproc
// %bb.0:
	sub	sp, sp, #48
	stp	x29, x30, [sp, #32]             // 16-byte Folded Spill
	add	x29, sp, #32
	.cfi_def_cfa w29, 16
	.cfi_offset w30, -8
	.cfi_offset w29, -16
	stur	x0, [x29, #-8]
	str	x1, [sp, #16]
	ldur	x0, [x29, #-8]
	str	x0, [sp, #8]                    // 8-byte Folded Spill
.Ltmp40:
	.loc	14 17 16 prologue_end           // src/blobstore.cc:17:16
	ldr	x1, [sp, #16]
	bl	_ZNSt7__cxx1112basic_stringIcSt11char_traitsIcESaIcEEaSEOS4_
	ldr	x8, [sp, #8]                    // 8-byte Folded Reload
	add	x0, x8, #32
	ldr	x8, [sp, #16]
	add	x1, x8, #32
	bl	_ZNSt3setINSt7__cxx1112basic_stringIcSt11char_traitsIcESaIcEEESt4lessIS5_ESaIS5_EEaSEOS9_
	ldr	x0, [sp, #8]                    // 8-byte Folded Reload
	ldp	x29, x30, [sp, #32]             // 16-byte Folded Reload
	add	sp, sp, #48
	ret
.Ltmp41:
.Lfunc_end11:
	.size	_ZN3org9blobstore15BlobstoreClient4impl4BlobaSEOS3_, .Lfunc_end11-_ZN3org9blobstore15BlobstoreClient4impl4BlobaSEOS3_
	.cfi_endproc
                                        // -- End function
	.section	.text._ZN3org9blobstore15BlobstoreClient4impl4BlobD2Ev,"axG",@progbits,_ZN3org9blobstore15BlobstoreClient4impl4BlobD2Ev,comdat
	.weak	_ZN3org9blobstore15BlobstoreClient4impl4BlobD2Ev // -- Begin function _ZN3org9blobstore15BlobstoreClient4impl4BlobD2Ev
	.p2align	2
	.type	_ZN3org9blobstore15BlobstoreClient4impl4BlobD2Ev,@function
_ZN3org9blobstore15BlobstoreClient4impl4BlobD2Ev: // @_ZN3org9blobstore15BlobstoreClient4impl4BlobD2Ev
.Lfunc_begin12:
	.loc	14 17 0                         // src/blobstore.cc:17:0
	.cfi_startproc
// %bb.0:
	sub	sp, sp, #32
	stp	x29, x30, [sp, #16]             // 16-byte Folded Spill
	add	x29, sp, #16
	.cfi_def_cfa w29, 16
	.cfi_offset w30, -8
	.cfi_offset w29, -16
	str	x0, [sp, #8]
	ldr	x8, [sp, #8]
	str	x8, [sp]                        // 8-byte Folded Spill
.Ltmp42:
	.loc	14 17 16 prologue_end           // src/blobstore.cc:17:16
	add	x0, x8, #32
	bl	_ZNSt3setINSt7__cxx1112basic_stringIcSt11char_traitsIcESaIcEEESt4lessIS5_ESaIS5_EED2Ev
	ldr	x0, [sp]                        // 8-byte Folded Reload
	bl	_ZNSt7__cxx1112basic_stringIcSt11char_traitsIcESaIcEED1Ev
.Ltmp43:
	.loc	14 17 16 is_stmt 0              // src/blobstore.cc:17:16
	ldp	x29, x30, [sp, #16]             // 16-byte Folded Reload
	add	sp, sp, #32
	ret
.Ltmp44:
.Lfunc_end12:
	.size	_ZN3org9blobstore15BlobstoreClient4impl4BlobD2Ev, .Lfunc_end12-_ZN3org9blobstore15BlobstoreClient4impl4BlobD2Ev
	.cfi_endproc
                                        // -- End function
	.text
	.globl	_ZNK3org9blobstore15BlobstoreClient3tagEmN4rust10cxxbridge13StrE // -- Begin function _ZNK3org9blobstore15BlobstoreClient3tagEmN4rust10cxxbridge13StrE
	.p2align	2
	.type	_ZNK3org9blobstore15BlobstoreClient3tagEmN4rust10cxxbridge13StrE,@function
_ZNK3org9blobstore15BlobstoreClient3tagEmN4rust10cxxbridge13StrE: // @_ZNK3org9blobstore15BlobstoreClient3tagEmN4rust10cxxbridge13StrE
.Lfunc_begin13:
	.loc	14 48 0 is_stmt 1               // src/blobstore.cc:48:0
	.cfi_startproc
// %bb.0:
	sub	sp, sp, #80
	stp	x29, x30, [sp, #64]             // 16-byte Folded Spill
	add	x29, sp, #64
	.cfi_def_cfa w29, 16
	.cfi_offset w30, -8
	.cfi_offset w29, -16
	sub	x8, x29, #16
	str	x8, [sp, #8]                    // 8-byte Folded Spill
	stur	x2, [x29, #-16]
	stur	x3, [x29, #-8]
	stur	x0, [x29, #-24]
	add	x8, sp, #32
	str	x8, [sp]                        // 8-byte Folded Spill
	str	x1, [sp, #32]
	ldur	x0, [x29, #-24]
.Ltmp45:
	.loc	14 49 3 prologue_end            // src/blobstore.cc:49:3
	bl	_ZNKSt19__shared_ptr_accessIN3org9blobstore15BlobstoreClient4implELN9__gnu_cxx12_Lock_policyE2ELb0ELb0EEptEv
	ldr	x1, [sp]                        // 8-byte Folded Reload
	bl	_ZNSt13unordered_mapImN3org9blobstore15BlobstoreClient4impl4BlobESt4hashImESt8equal_toImESaISt4pairIKmS4_EEEixERSA_
	ldr	x1, [sp, #8]                    // 8-byte Folded Reload
	.loc	14 49 23 is_stmt 0              // src/blobstore.cc:49:23
	add	x0, x0, #32
	.loc	14 49 28                        // src/blobstore.cc:49:28
	bl	_ZNSt3setINSt7__cxx1112basic_stringIcSt11char_traitsIcESaIcEEESt4lessIS5_ESaIS5_EE7emplaceIJRN4rust10cxxbridge13StrEEEESt4pairISt23_Rb_tree_const_iteratorIS5_EbEDpOT_
	str	x0, [sp, #16]
	str	x1, [sp, #24]
	.loc	14 50 1 is_stmt 1               // src/blobstore.cc:50:1
	ldp	x29, x30, [sp, #64]             // 16-byte Folded Reload
	add	sp, sp, #80
	ret
.Ltmp46:
.Lfunc_end13:
	.size	_ZNK3org9blobstore15BlobstoreClient3tagEmN4rust10cxxbridge13StrE, .Lfunc_end13-_ZNK3org9blobstore15BlobstoreClient3tagEmN4rust10cxxbridge13StrE
	.cfi_endproc
                                        // -- End function
	.section	.text._ZNSt3setINSt7__cxx1112basic_stringIcSt11char_traitsIcESaIcEEESt4lessIS5_ESaIS5_EE7emplaceIJRN4rust10cxxbridge13StrEEEESt4pairISt23_Rb_tree_const_iteratorIS5_EbEDpOT_,"axG",@progbits,_ZNSt3setINSt7__cxx1112basic_stringIcSt11char_traitsIcESaIcEEESt4lessIS5_ESaIS5_EE7emplaceIJRN4rust10cxxbridge13StrEEEESt4pairISt23_Rb_tree_const_iteratorIS5_EbEDpOT_,comdat
	.weak	_ZNSt3setINSt7__cxx1112basic_stringIcSt11char_traitsIcESaIcEEESt4lessIS5_ESaIS5_EE7emplaceIJRN4rust10cxxbridge13StrEEEESt4pairISt23_Rb_tree_const_iteratorIS5_EbEDpOT_ // -- Begin function _ZNSt3setINSt7__cxx1112basic_stringIcSt11char_traitsIcESaIcEEESt4lessIS5_ESaIS5_EE7emplaceIJRN4rust10cxxbridge13StrEEEESt4pairISt23_Rb_tree_const_iteratorIS5_EbEDpOT_
	.p2align	2
	.type	_ZNSt3setINSt7__cxx1112basic_stringIcSt11char_traitsIcESaIcEEESt4lessIS5_ESaIS5_EE7emplaceIJRN4rust10cxxbridge13StrEEEESt4pairISt23_Rb_tree_const_iteratorIS5_EbEDpOT_,@function
_ZNSt3setINSt7__cxx1112basic_stringIcSt11char_traitsIcESaIcEEESt4lessIS5_ESaIS5_EE7emplaceIJRN4rust10cxxbridge13StrEEEESt4pairISt23_Rb_tree_const_iteratorIS5_EbEDpOT_: // @_ZNSt3setINSt7__cxx1112basic_stringIcSt11char_traitsIcESaIcEEESt4lessIS5_ESaIS5_EE7emplaceIJRN4rust10cxxbridge13StrEEEESt4pairISt23_Rb_tree_const_iteratorIS5_EbEDpOT_
.Lfunc_begin14:
	.loc	15 463 0                        // /usr/bin/../lib/gcc/aarch64-linux-gnu/11/../../../../include/c++/11/bits/stl_set.h:463:0
	.cfi_startproc
// %bb.0:
	sub	sp, sp, #80
	stp	x29, x30, [sp, #64]             // 16-byte Folded Spill
	add	x29, sp, #64
	.cfi_def_cfa w29, 16
	.cfi_offset w30, -8
	.cfi_offset w29, -16
	stur	x0, [x29, #-24]
	str	x1, [sp, #32]
	ldur	x8, [x29, #-24]
	str	x8, [sp, #8]                    // 8-byte Folded Spill
.Ltmp47:
	.loc	15 463 54 prologue_end          // /usr/bin/../lib/gcc/aarch64-linux-gnu/11/../../../../include/c++/11/bits/stl_set.h:463:54
	ldr	x0, [sp, #32]
	.loc	15 463 34 is_stmt 0             // /usr/bin/../lib/gcc/aarch64-linux-gnu/11/../../../../include/c++/11/bits/stl_set.h:463:34
	bl	_ZSt7forwardIRN4rust10cxxbridge13StrEEOT_RNSt16remove_referenceIS4_E4typeE
	mov	x1, x0
	ldr	x0, [sp, #8]                    // 8-byte Folded Reload
	.loc	15 463 16                       // /usr/bin/../lib/gcc/aarch64-linux-gnu/11/../../../../include/c++/11/bits/stl_set.h:463:16
	bl	_ZNSt8_Rb_treeINSt7__cxx1112basic_stringIcSt11char_traitsIcESaIcEEES5_St9_IdentityIS5_ESt4lessIS5_ESaIS5_EE17_M_emplace_uniqueIJRN4rust10cxxbridge13StrEEEESt4pairISt17_Rb_tree_iteratorIS5_EbEDpOT_
	mov	x8, x1
	add	x1, sp, #16
	str	x0, [sp, #16]
	str	x8, [sp, #24]
	sub	x0, x29, #16
	.loc	15 463 11                       // /usr/bin/../lib/gcc/aarch64-linux-gnu/11/../../../../include/c++/11/bits/stl_set.h:463:11
	bl	_ZNSt4pairISt23_Rb_tree_const_iteratorINSt7__cxx1112basic_stringIcSt11char_traitsIcESaIcEEEEbEC2ISt17_Rb_tree_iteratorIS6_EbLb1EEEOS_IT_T0_E
	.loc	15 463 4                        // /usr/bin/../lib/gcc/aarch64-linux-gnu/11/../../../../include/c++/11/bits/stl_set.h:463:4
	ldur	x0, [x29, #-16]
	ldur	x1, [x29, #-8]
	ldp	x29, x30, [sp, #64]             // 16-byte Folded Reload
	add	sp, sp, #80
	ret
.Ltmp48:
.Lfunc_end14:
	.size	_ZNSt3setINSt7__cxx1112basic_stringIcSt11char_traitsIcESaIcEEESt4lessIS5_ESaIS5_EE7emplaceIJRN4rust10cxxbridge13StrEEEESt4pairISt23_Rb_tree_const_iteratorIS5_EbEDpOT_, .Lfunc_end14-_ZNSt3setINSt7__cxx1112basic_stringIcSt11char_traitsIcESaIcEEESt4lessIS5_ESaIS5_EE7emplaceIJRN4rust10cxxbridge13StrEEEESt4pairISt23_Rb_tree_const_iteratorIS5_EbEDpOT_
	.cfi_endproc
                                        // -- End function
	.text
	.globl	_ZNK3org9blobstore15BlobstoreClient8metadataEm // -- Begin function _ZNK3org9blobstore15BlobstoreClient8metadataEm
	.p2align	2
	.type	_ZNK3org9blobstore15BlobstoreClient8metadataEm,@function
_ZNK3org9blobstore15BlobstoreClient8metadataEm: // @_ZNK3org9blobstore15BlobstoreClient8metadataEm
.Lfunc_begin15:
	.loc	14 53 0 is_stmt 1               // src/blobstore.cc:53:0
	.cfi_startproc
	.cfi_personality 156, DW.ref.__gxx_personality_v0
	.cfi_lsda 28, .Lexception2
// %bb.0:
	sub	sp, sp, #176
	stp	x29, x30, [sp, #160]            // 16-byte Folded Spill
	add	x29, sp, #160
	.cfi_def_cfa w29, 16
	.cfi_offset w30, -8
	.cfi_offset w29, -16
	str	x8, [sp, #32]                   // 8-byte Folded Spill
	mov	x9, x8
	stur	x9, [x29, #-8]
	stur	x0, [x29, #-16]
	sub	x9, x29, #24
	str	x9, [sp, #48]                   // 8-byte Folded Spill
	stur	x1, [x29, #-24]
	ldur	x9, [x29, #-16]
	str	x9, [sp, #40]                   // 8-byte Folded Spill
	mov	w9, wzr
.Ltmp54:
	.loc	14 54 3 prologue_end            // src/blobstore.cc:54:3
	and	w9, w9, #0x1
	and	w9, w9, #0x1
	sturb	w9, [x29, #-25]
	.loc	14 54 24 is_stmt 0              // src/blobstore.cc:54:24
	str	xzr, [x8]
	add	x0, x8, #8
	.loc	14 54 25                        // src/blobstore.cc:54:25
	bl	_ZN4rust10cxxbridge13VecINS0_6StringEEC1Ev
	ldr	x0, [sp, #40]                   // 8-byte Folded Reload
	.loc	14 55 15 is_stmt 1              // src/blobstore.cc:55:15
	bl	_ZNKSt19__shared_ptr_accessIN3org9blobstore15BlobstoreClient4implELN9__gnu_cxx12_Lock_policyE2ELb0ELb0EEptEv
	ldr	x1, [sp, #48]                   // 8-byte Folded Reload
.Ltmp49:
	.loc	14 55 27 is_stmt 0              // src/blobstore.cc:55:27
	bl	_ZNSt13unordered_mapImN3org9blobstore15BlobstoreClient4impl4BlobESt4hashImESt8equal_toImESaISt4pairIKmS4_EEE4findERSA_
	str	x0, [sp, #56]                   // 8-byte Folded Spill
.Ltmp50:
	b	.LBB15_1
.LBB15_1:
	.loc	14 0 27                         // src/blobstore.cc:0:27
	ldr	x0, [sp, #40]                   // 8-byte Folded Reload
	ldr	x8, [sp, #56]                   // 8-byte Folded Reload
	sub	x9, x29, #40
	str	x9, [sp, #24]                   // 8-byte Folded Spill
	.loc	14 55 27                        // src/blobstore.cc:55:27
	stur	x8, [x29, #-40]
.Ltmp55:
	.loc	14 56 15 is_stmt 1              // src/blobstore.cc:56:15
	bl	_ZNKSt19__shared_ptr_accessIN3org9blobstore15BlobstoreClient4implELN9__gnu_cxx12_Lock_policyE2ELb0ELb0EEptEv
	.loc	14 56 27 is_stmt 0              // src/blobstore.cc:56:27
	bl	_ZNSt13unordered_mapImN3org9blobstore15BlobstoreClient4impl4BlobESt4hashImESt8equal_toImESaISt4pairIKmS4_EEE3endEv
	mov	x8, x0
	ldr	x0, [sp, #24]                   // 8-byte Folded Reload
	sub	x1, x29, #64
	stur	x8, [x29, #-64]
	.loc	14 56 12                        // src/blobstore.cc:56:12
	bl	_ZNSt8__detailneERKNS_19_Node_iterator_baseISt4pairIKmN3org9blobstore15BlobstoreClient4impl4BlobEELb0EEESB_
.Ltmp56:
	.loc	14 56 7                         // src/blobstore.cc:56:7
	tbz	w0, #0, .LBB15_5
	b	.LBB15_2
.LBB15_2:
	.loc	14 0 7                          // src/blobstore.cc:0:7
	sub	x0, x29, #40
	str	x0, [sp, #8]                    // 8-byte Folded Spill
.Ltmp57:
	.loc	14 57 21 is_stmt 1              // src/blobstore.cc:57:21
	bl	_ZNKSt8__detail14_Node_iteratorISt4pairIKmN3org9blobstore15BlobstoreClient4impl4BlobEELb0ELb0EEptEv
	.loc	14 57 27 is_stmt 0              // src/blobstore.cc:57:27
	add	x0, x0, #8
	.loc	14 57 39                        // src/blobstore.cc:57:39
	bl	_ZNKSt7__cxx1112basic_stringIcSt11char_traitsIcESaIcEE4sizeEv
	ldr	x9, [sp, #32]                   // 8-byte Folded Reload
	mov	x8, x0
	ldr	x0, [sp, #8]                    // 8-byte Folded Reload
	.loc	14 57 19                        // src/blobstore.cc:57:19
	str	x8, [x9]
	.loc	14 58 19 is_stmt 1              // src/blobstore.cc:58:19
	bl	_ZNKSt8__detail14_Node_iteratorISt4pairIKmN3org9blobstore15BlobstoreClient4impl4BlobEELb0ELb0EEptEv
	.loc	14 58 32 is_stmt 0              // src/blobstore.cc:58:32
	add	x0, x0, #40
	.loc	14 58 37                        // src/blobstore.cc:58:37
	bl	_ZNKSt3setINSt7__cxx1112basic_stringIcSt11char_traitsIcESaIcEEESt4lessIS5_ESaIS5_EE6cbeginEv
	mov	x8, x0
	ldr	x0, [sp, #8]                    // 8-byte Folded Reload
	stur	x8, [x29, #-72]
	.loc	14 58 47                        // src/blobstore.cc:58:47
	bl	_ZNKSt8__detail14_Node_iteratorISt4pairIKmN3org9blobstore15BlobstoreClient4impl4BlobEELb0ELb0EEptEv
	.loc	14 58 60                        // src/blobstore.cc:58:60
	add	x0, x0, #40
	.loc	14 58 65                        // src/blobstore.cc:58:65
	bl	_ZNKSt3setINSt7__cxx1112basic_stringIcSt11char_traitsIcESaIcEEESt4lessIS5_ESaIS5_EE4cendEv
	ldr	x8, [sp, #32]                   // 8-byte Folded Reload
	str	x0, [sp, #80]
	.loc	14 59 19 is_stmt 1              // src/blobstore.cc:59:19
	str	x8, [sp, #72]
	.loc	14 58 5                         // src/blobstore.cc:58:5
	ldur	x0, [x29, #-72]
	ldr	x1, [sp, #80]
	ldr	x2, [sp, #72]
.Ltmp51:
	bl	_ZSt8for_eachISt23_Rb_tree_const_iteratorINSt7__cxx1112basic_stringIcSt11char_traitsIcESaIcEEEEZNK3org9blobstore15BlobstoreClient8metadataEmE3$_0ET0_T_SD_SC_
	str	x0, [sp, #16]                   // 8-byte Folded Spill
.Ltmp52:
	b	.LBB15_3
.LBB15_3:
	.loc	14 0 5 is_stmt 0                // src/blobstore.cc:0:5
	ldr	x8, [sp, #16]                   // 8-byte Folded Reload
	.loc	14 58 5                         // src/blobstore.cc:58:5
	str	x8, [sp, #64]
	.loc	14 60 3 is_stmt 1               // src/blobstore.cc:60:3
	b	.LBB15_5
.Ltmp58:
.LBB15_4:
.Ltmp53:
	.loc	14 62 1                         // src/blobstore.cc:62:1
	mov	x9, x0
	ldr	x0, [sp, #32]                   // 8-byte Folded Reload
	mov	w8, w1
	stur	x9, [x29, #-48]
	stur	w8, [x29, #-52]
	bl	_ZN3org9blobstore12BlobMetadataD2Ev
	b	.LBB15_8
.LBB15_5:
	.loc	14 0 1 is_stmt 0                // src/blobstore.cc:0:1
	mov	w8, #1
	.loc	14 61 3 is_stmt 1               // src/blobstore.cc:61:3
	and	w8, w8, #0x1
	and	w8, w8, #0x1
	sturb	w8, [x29, #-25]
	.loc	14 62 1                         // src/blobstore.cc:62:1
	ldurb	w8, [x29, #-25]
	tbnz	w8, #0, .LBB15_7
	b	.LBB15_6
.LBB15_6:
	.loc	14 0 1 is_stmt 0                // src/blobstore.cc:0:1
	ldr	x0, [sp, #32]                   // 8-byte Folded Reload
	.loc	14 62 1                         // src/blobstore.cc:62:1
	bl	_ZN3org9blobstore12BlobMetadataD2Ev
	b	.LBB15_7
.LBB15_7:
	ldp	x29, x30, [sp, #160]            // 16-byte Folded Reload
	add	sp, sp, #176
	ret
.LBB15_8:
	ldur	x0, [x29, #-48]
	bl	_Unwind_Resume
.Ltmp59:
.Lfunc_end15:
	.size	_ZNK3org9blobstore15BlobstoreClient8metadataEm, .Lfunc_end15-_ZNK3org9blobstore15BlobstoreClient8metadataEm
	.cfi_endproc
	.section	.gcc_except_table,"a",@progbits
	.p2align	2
GCC_except_table15:
.Lexception2:
	.byte	255                             // @LPStart Encoding = omit
	.byte	255                             // @TType Encoding = omit
	.byte	1                               // Call site Encoding = uleb128
	.uleb128 .Lcst_end2-.Lcst_begin2
.Lcst_begin2:
	.uleb128 .Ltmp49-.Lfunc_begin15         // >> Call Site 1 <<
	.uleb128 .Ltmp52-.Ltmp49                //   Call between .Ltmp49 and .Ltmp52
	.uleb128 .Ltmp53-.Lfunc_begin15         //     jumps to .Ltmp53
	.byte	0                               //   On action: cleanup
	.uleb128 .Ltmp52-.Lfunc_begin15         // >> Call Site 2 <<
	.uleb128 .Lfunc_end15-.Ltmp52           //   Call between .Ltmp52 and .Lfunc_end15
	.byte	0                               //     has no landing pad
	.byte	0                               //   On action: cleanup
.Lcst_end2:
	.p2align	2
                                        // -- End function
	.section	.text._ZNSt13unordered_mapImN3org9blobstore15BlobstoreClient4impl4BlobESt4hashImESt8equal_toImESaISt4pairIKmS4_EEE4findERSA_,"axG",@progbits,_ZNSt13unordered_mapImN3org9blobstore15BlobstoreClient4impl4BlobESt4hashImESt8equal_toImESaISt4pairIKmS4_EEE4findERSA_,comdat
	.weak	_ZNSt13unordered_mapImN3org9blobstore15BlobstoreClient4impl4BlobESt4hashImESt8equal_toImESaISt4pairIKmS4_EEE4findERSA_ // -- Begin function _ZNSt13unordered_mapImN3org9blobstore15BlobstoreClient4impl4BlobESt4hashImESt8equal_toImESaISt4pairIKmS4_EEE4findERSA_
	.p2align	2
	.type	_ZNSt13unordered_mapImN3org9blobstore15BlobstoreClient4impl4BlobESt4hashImESt8equal_toImESaISt4pairIKmS4_EEE4findERSA_,@function
_ZNSt13unordered_mapImN3org9blobstore15BlobstoreClient4impl4BlobESt4hashImESt8equal_toImESaISt4pairIKmS4_EEE4findERSA_: // @_ZNSt13unordered_mapImN3org9blobstore15BlobstoreClient4impl4BlobESt4hashImESt8equal_toImESaISt4pairIKmS4_EEE4findERSA_
.Lfunc_begin16:
	.loc	21 869 0 is_stmt 1              // /usr/bin/../lib/gcc/aarch64-linux-gnu/11/../../../../include/c++/11/bits/unordered_map.h:869:0
	.cfi_startproc
// %bb.0:
	sub	sp, sp, #48
	stp	x29, x30, [sp, #32]             // 16-byte Folded Spill
	add	x29, sp, #32
	.cfi_def_cfa w29, 16
	.cfi_offset w30, -8
	.cfi_offset w29, -16
	str	x0, [sp, #16]
	str	x1, [sp, #8]
	ldr	x0, [sp, #16]
.Ltmp60:
	.loc	21 869 26 prologue_end          // /usr/bin/../lib/gcc/aarch64-linux-gnu/11/../../../../include/c++/11/bits/unordered_map.h:869:26
	ldr	x1, [sp, #8]
	.loc	21 869 21 is_stmt 0             // /usr/bin/../lib/gcc/aarch64-linux-gnu/11/../../../../include/c++/11/bits/unordered_map.h:869:21
	bl	_ZNSt10_HashtableImSt4pairIKmN3org9blobstore15BlobstoreClient4impl4BlobEESaIS7_ENSt8__detail10_Select1stESt8equal_toImESt4hashImENS9_18_Mod_range_hashingENS9_20_Default_ranged_hashENS9_20_Prime_rehash_policyENS9_17_Hashtable_traitsILb0ELb0ELb1EEEE4findERS1_
	stur	x0, [x29, #-8]
	.loc	21 869 9                        // /usr/bin/../lib/gcc/aarch64-linux-gnu/11/../../../../include/c++/11/bits/unordered_map.h:869:9
	ldur	x0, [x29, #-8]
	ldp	x29, x30, [sp, #32]             // 16-byte Folded Reload
	add	sp, sp, #48
	ret
.Ltmp61:
.Lfunc_end16:
	.size	_ZNSt13unordered_mapImN3org9blobstore15BlobstoreClient4impl4BlobESt4hashImESt8equal_toImESaISt4pairIKmS4_EEE4findERSA_, .Lfunc_end16-_ZNSt13unordered_mapImN3org9blobstore15BlobstoreClient4impl4BlobESt4hashImESt8equal_toImESaISt4pairIKmS4_EEE4findERSA_
	.cfi_endproc
                                        // -- End function
	.section	.text._ZNSt8__detailneERKNS_19_Node_iterator_baseISt4pairIKmN3org9blobstore15BlobstoreClient4impl4BlobEELb0EEESB_,"axG",@progbits,_ZNSt8__detailneERKNS_19_Node_iterator_baseISt4pairIKmN3org9blobstore15BlobstoreClient4impl4BlobEELb0EEESB_,comdat
	.weak	_ZNSt8__detailneERKNS_19_Node_iterator_baseISt4pairIKmN3org9blobstore15BlobstoreClient4impl4BlobEELb0EEESB_ // -- Begin function _ZNSt8__detailneERKNS_19_Node_iterator_baseISt4pairIKmN3org9blobstore15BlobstoreClient4impl4BlobEELb0EEESB_
	.p2align	2
	.type	_ZNSt8__detailneERKNS_19_Node_iterator_baseISt4pairIKmN3org9blobstore15BlobstoreClient4impl4BlobEELb0EEESB_,@function
_ZNSt8__detailneERKNS_19_Node_iterator_baseISt4pairIKmN3org9blobstore15BlobstoreClient4impl4BlobEELb0EEESB_: // @_ZNSt8__detailneERKNS_19_Node_iterator_baseISt4pairIKmN3org9blobstore15BlobstoreClient4impl4BlobEELb0EEESB_
.Lfunc_begin17:
	.loc	17 311 0 is_stmt 1              // /usr/bin/../lib/gcc/aarch64-linux-gnu/11/../../../../include/c++/11/bits/hashtable_policy.h:311:0
	.cfi_startproc
// %bb.0:
	sub	sp, sp, #16
	.cfi_def_cfa_offset 16
	str	x0, [sp, #8]
	str	x1, [sp]
.Ltmp63:
	.loc	17 311 16 prologue_end          // /usr/bin/../lib/gcc/aarch64-linux-gnu/11/../../../../include/c++/11/bits/hashtable_policy.h:311:16
	ldr	x8, [sp, #8]
	.loc	17 311 20 is_stmt 0             // /usr/bin/../lib/gcc/aarch64-linux-gnu/11/../../../../include/c++/11/bits/hashtable_policy.h:311:20
	ldr	x8, [x8]
	.loc	17 311 30                       // /usr/bin/../lib/gcc/aarch64-linux-gnu/11/../../../../include/c++/11/bits/hashtable_policy.h:311:30
	ldr	x9, [sp]
	.loc	17 311 34                       // /usr/bin/../lib/gcc/aarch64-linux-gnu/11/../../../../include/c++/11/bits/hashtable_policy.h:311:34
	ldr	x9, [x9]
	.loc	17 311 27                       // /usr/bin/../lib/gcc/aarch64-linux-gnu/11/../../../../include/c++/11/bits/hashtable_policy.h:311:27
	subs	x8, x8, x9
	cset	w8, ne
	.loc	17 311 9                        // /usr/bin/../lib/gcc/aarch64-linux-gnu/11/../../../../include/c++/11/bits/hashtable_policy.h:311:9
	and	w0, w8, #0x1
	add	sp, sp, #16
	ret
.Ltmp64:
.Lfunc_end17:
	.size	_ZNSt8__detailneERKNS_19_Node_iterator_baseISt4pairIKmN3org9blobstore15BlobstoreClient4impl4BlobEELb0EEESB_, .Lfunc_end17-_ZNSt8__detailneERKNS_19_Node_iterator_baseISt4pairIKmN3org9blobstore15BlobstoreClient4impl4BlobEELb0EEESB_
	.cfi_endproc
                                        // -- End function
	.section	.text._ZNSt13unordered_mapImN3org9blobstore15BlobstoreClient4impl4BlobESt4hashImESt8equal_toImESaISt4pairIKmS4_EEE3endEv,"axG",@progbits,_ZNSt13unordered_mapImN3org9blobstore15BlobstoreClient4impl4BlobESt4hashImESt8equal_toImESaISt4pairIKmS4_EEE3endEv,comdat
	.weak	_ZNSt13unordered_mapImN3org9blobstore15BlobstoreClient4impl4BlobESt4hashImESt8equal_toImESaISt4pairIKmS4_EEE3endEv // -- Begin function _ZNSt13unordered_mapImN3org9blobstore15BlobstoreClient4impl4BlobESt4hashImESt8equal_toImESaISt4pairIKmS4_EEE3endEv
	.p2align	2
	.type	_ZNSt13unordered_mapImN3org9blobstore15BlobstoreClient4impl4BlobESt4hashImESt8equal_toImESaISt4pairIKmS4_EEE3endEv,@function
_ZNSt13unordered_mapImN3org9blobstore15BlobstoreClient4impl4BlobESt4hashImESt8equal_toImESaISt4pairIKmS4_EEE3endEv: // @_ZNSt13unordered_mapImN3org9blobstore15BlobstoreClient4impl4BlobESt4hashImESt8equal_toImESaISt4pairIKmS4_EEE3endEv
.Lfunc_begin18:
	.loc	21 348 0 is_stmt 1              // /usr/bin/../lib/gcc/aarch64-linux-gnu/11/../../../../include/c++/11/bits/unordered_map.h:348:0
	.cfi_startproc
// %bb.0:
	sub	sp, sp, #32
	stp	x29, x30, [sp, #16]             // 16-byte Folded Spill
	add	x29, sp, #16
	.cfi_def_cfa w29, 16
	.cfi_offset w30, -8
	.cfi_offset w29, -16
	str	x0, [sp]
	ldr	x0, [sp]
.Ltmp65:
	.loc	21 348 21 prologue_end          // /usr/bin/../lib/gcc/aarch64-linux-gnu/11/../../../../include/c++/11/bits/unordered_map.h:348:21
	bl	_ZNSt10_HashtableImSt4pairIKmN3org9blobstore15BlobstoreClient4impl4BlobEESaIS7_ENSt8__detail10_Select1stESt8equal_toImESt4hashImENS9_18_Mod_range_hashingENS9_20_Default_ranged_hashENS9_20_Prime_rehash_policyENS9_17_Hashtable_traitsILb0ELb0ELb1EEEE3endEv
	str	x0, [sp, #8]
	.loc	21 348 9 is_stmt 0              // /usr/bin/../lib/gcc/aarch64-linux-gnu/11/../../../../include/c++/11/bits/unordered_map.h:348:9
	ldr	x0, [sp, #8]
	ldp	x29, x30, [sp, #16]             // 16-byte Folded Reload
	add	sp, sp, #32
	ret
.Ltmp66:
.Lfunc_end18:
	.size	_ZNSt13unordered_mapImN3org9blobstore15BlobstoreClient4impl4BlobESt4hashImESt8equal_toImESaISt4pairIKmS4_EEE3endEv, .Lfunc_end18-_ZNSt13unordered_mapImN3org9blobstore15BlobstoreClient4impl4BlobESt4hashImESt8equal_toImESaISt4pairIKmS4_EEE3endEv
	.cfi_endproc
                                        // -- End function
	.section	.text._ZNKSt8__detail14_Node_iteratorISt4pairIKmN3org9blobstore15BlobstoreClient4impl4BlobEELb0ELb0EEptEv,"axG",@progbits,_ZNKSt8__detail14_Node_iteratorISt4pairIKmN3org9blobstore15BlobstoreClient4impl4BlobEELb0ELb0EEptEv,comdat
	.weak	_ZNKSt8__detail14_Node_iteratorISt4pairIKmN3org9blobstore15BlobstoreClient4impl4BlobEELb0ELb0EEptEv // -- Begin function _ZNKSt8__detail14_Node_iteratorISt4pairIKmN3org9blobstore15BlobstoreClient4impl4BlobEELb0ELb0EEptEv
	.p2align	2
	.type	_ZNKSt8__detail14_Node_iteratorISt4pairIKmN3org9blobstore15BlobstoreClient4impl4BlobEELb0ELb0EEptEv,@function
_ZNKSt8__detail14_Node_iteratorISt4pairIKmN3org9blobstore15BlobstoreClient4impl4BlobEELb0ELb0EEptEv: // @_ZNKSt8__detail14_Node_iteratorISt4pairIKmN3org9blobstore15BlobstoreClient4impl4BlobEELb0ELb0EEptEv
.Lfunc_begin19:
	.loc	17 347 0 is_stmt 1              // /usr/bin/../lib/gcc/aarch64-linux-gnu/11/../../../../include/c++/11/bits/hashtable_policy.h:347:0
	.cfi_startproc
// %bb.0:
	sub	sp, sp, #32
	stp	x29, x30, [sp, #16]             // 16-byte Folded Spill
	add	x29, sp, #16
	.cfi_def_cfa w29, 16
	.cfi_offset w30, -8
	.cfi_offset w29, -16
	str	x0, [sp, #8]
	ldr	x8, [sp, #8]
.Ltmp67:
	.loc	17 347 22 prologue_end          // /usr/bin/../lib/gcc/aarch64-linux-gnu/11/../../../../include/c++/11/bits/hashtable_policy.h:347:22
	ldr	x8, [x8]
	.loc	17 347 30 is_stmt 0             // /usr/bin/../lib/gcc/aarch64-linux-gnu/11/../../../../include/c++/11/bits/hashtable_policy.h:347:30
	add	x0, x8, #8
	bl	_ZNSt8__detail21_Hash_node_value_baseISt4pairIKmN3org9blobstore15BlobstoreClient4impl4BlobEEE9_M_valptrEv
	.loc	17 347 9                        // /usr/bin/../lib/gcc/aarch64-linux-gnu/11/../../../../include/c++/11/bits/hashtable_policy.h:347:9
	ldp	x29, x30, [sp, #16]             // 16-byte Folded Reload
	add	sp, sp, #32
	ret
.Ltmp68:
.Lfunc_end19:
	.size	_ZNKSt8__detail14_Node_iteratorISt4pairIKmN3org9blobstore15BlobstoreClient4impl4BlobEELb0ELb0EEptEv, .Lfunc_end19-_ZNKSt8__detail14_Node_iteratorISt4pairIKmN3org9blobstore15BlobstoreClient4impl4BlobEELb0ELb0EEptEv
	.cfi_endproc
                                        // -- End function
	.text
	.p2align	2                               // -- Begin function _ZSt8for_eachISt23_Rb_tree_const_iteratorINSt7__cxx1112basic_stringIcSt11char_traitsIcESaIcEEEEZNK3org9blobstore15BlobstoreClient8metadataEmE3$_0ET0_T_SD_SC_
	.type	_ZSt8for_eachISt23_Rb_tree_const_iteratorINSt7__cxx1112basic_stringIcSt11char_traitsIcESaIcEEEEZNK3org9blobstore15BlobstoreClient8metadataEmE3$_0ET0_T_SD_SC_,@function
_ZSt8for_eachISt23_Rb_tree_const_iteratorINSt7__cxx1112basic_stringIcSt11char_traitsIcESaIcEEEEZNK3org9blobstore15BlobstoreClient8metadataEmE3$_0ET0_T_SD_SC_: // @"_ZSt8for_eachISt23_Rb_tree_const_iteratorINSt7__cxx1112basic_stringIcSt11char_traitsIcESaIcEEEEZNK3org9blobstore15BlobstoreClient8metadataEmE3$_0ET0_T_SD_SC_"
.Lfunc_begin20:
	.file	62 "/usr/bin/../lib/gcc/aarch64-linux-gnu/11/../../../../include/c++/11/bits" "stl_algo.h"
	.loc	62 3815 0 is_stmt 1             // /usr/bin/../lib/gcc/aarch64-linux-gnu/11/../../../../include/c++/11/bits/stl_algo.h:3815:0
	.cfi_startproc
// %bb.0:
	sub	sp, sp, #48
	stp	x29, x30, [sp, #32]             // 16-byte Folded Spill
	add	x29, sp, #32
	.cfi_def_cfa w29, 16
	.cfi_offset w30, -8
	.cfi_offset w29, -16
	str	x0, [sp, #16]
	str	x1, [sp, #8]
	str	x2, [sp]
.Ltmp69:
	.loc	62 3819 7 prologue_end          // /usr/bin/../lib/gcc/aarch64-linux-gnu/11/../../../../include/c++/11/bits/stl_algo.h:3819:7
	b	.LBB20_1
.LBB20_1:                               // =>This Inner Loop Header: Depth=1
	.loc	62 0 7 is_stmt 0                // /usr/bin/../lib/gcc/aarch64-linux-gnu/11/../../../../include/c++/11/bits/stl_algo.h:0:7
	add	x0, sp, #16
	add	x1, sp, #8
.Ltmp70:
	.loc	62 3819 22                      // /usr/bin/../lib/gcc/aarch64-linux-gnu/11/../../../../include/c++/11/bits/stl_algo.h:3819:22
	bl	_ZStneRKSt23_Rb_tree_const_iteratorINSt7__cxx1112basic_stringIcSt11char_traitsIcESaIcEEEES8_
.Ltmp71:
	.loc	62 3819 7                       // /usr/bin/../lib/gcc/aarch64-linux-gnu/11/../../../../include/c++/11/bits/stl_algo.h:3819:7
	tbz	w0, #0, .LBB20_4
	b	.LBB20_2
.LBB20_2:                               //   in Loop: Header=BB20_1 Depth=1
	.loc	62 0 7                          // /usr/bin/../lib/gcc/aarch64-linux-gnu/11/../../../../include/c++/11/bits/stl_algo.h:0:7
	add	x0, sp, #16
.Ltmp72:
	.loc	62 3820 6 is_stmt 1             // /usr/bin/../lib/gcc/aarch64-linux-gnu/11/../../../../include/c++/11/bits/stl_algo.h:3820:6
	bl	_ZNKSt23_Rb_tree_const_iteratorINSt7__cxx1112basic_stringIcSt11char_traitsIcESaIcEEEEdeEv
	mov	x1, x0
	mov	x0, sp
	.loc	62 3820 2 is_stmt 0             // /usr/bin/../lib/gcc/aarch64-linux-gnu/11/../../../../include/c++/11/bits/stl_algo.h:3820:2
	bl	_ZZNK3org9blobstore15BlobstoreClient8metadataEmENK3$_0clIKNSt7__cxx1112basic_stringIcSt11char_traitsIcESaIcEEEEEDaRT_
	b	.LBB20_3
.LBB20_3:                               //   in Loop: Header=BB20_1 Depth=1
	.loc	62 0 2                          // /usr/bin/../lib/gcc/aarch64-linux-gnu/11/../../../../include/c++/11/bits/stl_algo.h:0:2
	add	x0, sp, #16
	.loc	62 3819 33 is_stmt 1            // /usr/bin/../lib/gcc/aarch64-linux-gnu/11/../../../../include/c++/11/bits/stl_algo.h:3819:33
	bl	_ZNSt23_Rb_tree_const_iteratorINSt7__cxx1112basic_stringIcSt11char_traitsIcESaIcEEEEppEv
	.loc	62 3819 7 is_stmt 0             // /usr/bin/../lib/gcc/aarch64-linux-gnu/11/../../../../include/c++/11/bits/stl_algo.h:3819:7
	b	.LBB20_1
.Ltmp73:
.LBB20_4:
	.loc	62 3821 14 is_stmt 1            // /usr/bin/../lib/gcc/aarch64-linux-gnu/11/../../../../include/c++/11/bits/stl_algo.h:3821:14
	ldr	x8, [sp]
	stur	x8, [x29, #-8]
	.loc	62 3821 7 is_stmt 0             // /usr/bin/../lib/gcc/aarch64-linux-gnu/11/../../../../include/c++/11/bits/stl_algo.h:3821:7
	ldur	x0, [x29, #-8]
	ldp	x29, x30, [sp, #32]             // 16-byte Folded Reload
	add	sp, sp, #48
	ret
.Ltmp74:
.Lfunc_end20:
	.size	_ZSt8for_eachISt23_Rb_tree_const_iteratorINSt7__cxx1112basic_stringIcSt11char_traitsIcESaIcEEEEZNK3org9blobstore15BlobstoreClient8metadataEmE3$_0ET0_T_SD_SC_, .Lfunc_end20-_ZSt8for_eachISt23_Rb_tree_const_iteratorINSt7__cxx1112basic_stringIcSt11char_traitsIcESaIcEEEEZNK3org9blobstore15BlobstoreClient8metadataEmE3$_0ET0_T_SD_SC_
	.cfi_endproc
                                        // -- End function
	.section	.text._ZNKSt3setINSt7__cxx1112basic_stringIcSt11char_traitsIcESaIcEEESt4lessIS5_ESaIS5_EE6cbeginEv,"axG",@progbits,_ZNKSt3setINSt7__cxx1112basic_stringIcSt11char_traitsIcESaIcEEESt4lessIS5_ESaIS5_EE6cbeginEv,comdat
	.weak	_ZNKSt3setINSt7__cxx1112basic_stringIcSt11char_traitsIcESaIcEEESt4lessIS5_ESaIS5_EE6cbeginEv // -- Begin function _ZNKSt3setINSt7__cxx1112basic_stringIcSt11char_traitsIcESaIcEEESt4lessIS5_ESaIS5_EE6cbeginEv
	.p2align	2
	.type	_ZNKSt3setINSt7__cxx1112basic_stringIcSt11char_traitsIcESaIcEEESt4lessIS5_ESaIS5_EE6cbeginEv,@function
_ZNKSt3setINSt7__cxx1112basic_stringIcSt11char_traitsIcESaIcEEESt4lessIS5_ESaIS5_EE6cbeginEv: // @_ZNKSt3setINSt7__cxx1112basic_stringIcSt11char_traitsIcESaIcEEESt4lessIS5_ESaIS5_EE6cbeginEv
.Lfunc_begin21:
	.loc	15 382 0 is_stmt 1              // /usr/bin/../lib/gcc/aarch64-linux-gnu/11/../../../../include/c++/11/bits/stl_set.h:382:0
	.cfi_startproc
// %bb.0:
	sub	sp, sp, #32
	stp	x29, x30, [sp, #16]             // 16-byte Folded Spill
	add	x29, sp, #16
	.cfi_def_cfa w29, 16
	.cfi_offset w30, -8
	.cfi_offset w29, -16
	str	x0, [sp]
	ldr	x0, [sp]
.Ltmp75:
	.loc	15 382 21 prologue_end          // /usr/bin/../lib/gcc/aarch64-linux-gnu/11/../../../../include/c++/11/bits/stl_set.h:382:21
	bl	_ZNKSt8_Rb_treeINSt7__cxx1112basic_stringIcSt11char_traitsIcESaIcEEES5_St9_IdentityIS5_ESt4lessIS5_ESaIS5_EE5beginEv
	str	x0, [sp, #8]
	.loc	15 382 9 is_stmt 0              // /usr/bin/../lib/gcc/aarch64-linux-gnu/11/../../../../include/c++/11/bits/stl_set.h:382:9
	ldr	x0, [sp, #8]
	ldp	x29, x30, [sp, #16]             // 16-byte Folded Reload
	add	sp, sp, #32
	ret
.Ltmp76:
.Lfunc_end21:
	.size	_ZNKSt3setINSt7__cxx1112basic_stringIcSt11char_traitsIcESaIcEEESt4lessIS5_ESaIS5_EE6cbeginEv, .Lfunc_end21-_ZNKSt3setINSt7__cxx1112basic_stringIcSt11char_traitsIcESaIcEEESt4lessIS5_ESaIS5_EE6cbeginEv
	.cfi_endproc
                                        // -- End function
	.section	.text._ZNKSt3setINSt7__cxx1112basic_stringIcSt11char_traitsIcESaIcEEESt4lessIS5_ESaIS5_EE4cendEv,"axG",@progbits,_ZNKSt3setINSt7__cxx1112basic_stringIcSt11char_traitsIcESaIcEEESt4lessIS5_ESaIS5_EE4cendEv,comdat
	.weak	_ZNKSt3setINSt7__cxx1112basic_stringIcSt11char_traitsIcESaIcEEESt4lessIS5_ESaIS5_EE4cendEv // -- Begin function _ZNKSt3setINSt7__cxx1112basic_stringIcSt11char_traitsIcESaIcEEESt4lessIS5_ESaIS5_EE4cendEv
	.p2align	2
	.type	_ZNKSt3setINSt7__cxx1112basic_stringIcSt11char_traitsIcESaIcEEESt4lessIS5_ESaIS5_EE4cendEv,@function
_ZNKSt3setINSt7__cxx1112basic_stringIcSt11char_traitsIcESaIcEEESt4lessIS5_ESaIS5_EE4cendEv: // @_ZNKSt3setINSt7__cxx1112basic_stringIcSt11char_traitsIcESaIcEEESt4lessIS5_ESaIS5_EE4cendEv
.Lfunc_begin22:
	.loc	15 391 0 is_stmt 1              // /usr/bin/../lib/gcc/aarch64-linux-gnu/11/../../../../include/c++/11/bits/stl_set.h:391:0
	.cfi_startproc
// %bb.0:
	sub	sp, sp, #32
	stp	x29, x30, [sp, #16]             // 16-byte Folded Spill
	add	x29, sp, #16
	.cfi_def_cfa w29, 16
	.cfi_offset w30, -8
	.cfi_offset w29, -16
	str	x0, [sp]
	ldr	x0, [sp]
.Ltmp77:
	.loc	15 391 21 prologue_end          // /usr/bin/../lib/gcc/aarch64-linux-gnu/11/../../../../include/c++/11/bits/stl_set.h:391:21
	bl	_ZNKSt8_Rb_treeINSt7__cxx1112basic_stringIcSt11char_traitsIcESaIcEEES5_St9_IdentityIS5_ESt4lessIS5_ESaIS5_EE3endEv
	str	x0, [sp, #8]
	.loc	15 391 9 is_stmt 0              // /usr/bin/../lib/gcc/aarch64-linux-gnu/11/../../../../include/c++/11/bits/stl_set.h:391:9
	ldr	x0, [sp, #8]
	ldp	x29, x30, [sp, #16]             // 16-byte Folded Reload
	add	sp, sp, #32
	ret
.Ltmp78:
.Lfunc_end22:
	.size	_ZNKSt3setINSt7__cxx1112basic_stringIcSt11char_traitsIcESaIcEEESt4lessIS5_ESaIS5_EE4cendEv, .Lfunc_end22-_ZNKSt3setINSt7__cxx1112basic_stringIcSt11char_traitsIcESaIcEEESt4lessIS5_ESaIS5_EE4cendEv
	.cfi_endproc
                                        // -- End function
	.section	.text._ZN3org9blobstore12BlobMetadataD2Ev,"axG",@progbits,_ZN3org9blobstore12BlobMetadataD2Ev,comdat
	.weak	_ZN3org9blobstore12BlobMetadataD2Ev // -- Begin function _ZN3org9blobstore12BlobMetadataD2Ev
	.p2align	2
	.type	_ZN3org9blobstore12BlobMetadataD2Ev,@function
_ZN3org9blobstore12BlobMetadataD2Ev:    // @_ZN3org9blobstore12BlobMetadataD2Ev
.Lfunc_begin23:
	.loc	29 781 0 is_stmt 1              // target/cxxbridge/demo/src/main.rs.h:781:0
	.cfi_startproc
// %bb.0:
	sub	sp, sp, #32
	stp	x29, x30, [sp, #16]             // 16-byte Folded Spill
	add	x29, sp, #16
	.cfi_def_cfa w29, 16
	.cfi_offset w30, -8
	.cfi_offset w29, -16
	str	x0, [sp, #8]
	ldr	x8, [sp, #8]
.Ltmp79:
	.loc	29 781 8 prologue_end           // target/cxxbridge/demo/src/main.rs.h:781:8
	add	x0, x8, #8
	bl	_ZN4rust10cxxbridge13VecINS0_6StringEED2Ev
.Ltmp80:
	.loc	29 781 8 is_stmt 0              // target/cxxbridge/demo/src/main.rs.h:781:8
	ldp	x29, x30, [sp, #16]             // 16-byte Folded Reload
	add	sp, sp, #32
	ret
.Ltmp81:
.Lfunc_end23:
	.size	_ZN3org9blobstore12BlobMetadataD2Ev, .Lfunc_end23-_ZN3org9blobstore12BlobMetadataD2Ev
	.cfi_endproc
                                        // -- End function
	.text
	.globl	_ZN3org9blobstore20new_blobstore_clientEv // -- Begin function _ZN3org9blobstore20new_blobstore_clientEv
	.p2align	2
	.type	_ZN3org9blobstore20new_blobstore_clientEv,@function
_ZN3org9blobstore20new_blobstore_clientEv: // @_ZN3org9blobstore20new_blobstore_clientEv
.Lfunc_begin24:
	.loc	14 65 0 is_stmt 1               // src/blobstore.cc:65:0
	.cfi_startproc
// %bb.0:
	sub	sp, sp, #32
	stp	x29, x30, [sp, #16]             // 16-byte Folded Spill
	add	x29, sp, #16
	.cfi_def_cfa w29, 16
	.cfi_offset w30, -8
	.cfi_offset w29, -16
	mov	x9, x8
	str	x9, [sp, #8]
.Ltmp82:
	.loc	14 66 10 prologue_end           // src/blobstore.cc:66:10
	bl	_ZSt11make_uniqueIN3org9blobstore15BlobstoreClientEJEENSt9_MakeUniqIT_E15__single_objectEDpOT0_
	.loc	14 66 3 is_stmt 0               // src/blobstore.cc:66:3
	ldp	x29, x30, [sp, #16]             // 16-byte Folded Reload
	add	sp, sp, #32
	ret
.Ltmp83:
.Lfunc_end24:
	.size	_ZN3org9blobstore20new_blobstore_clientEv, .Lfunc_end24-_ZN3org9blobstore20new_blobstore_clientEv
	.cfi_endproc
                                        // -- End function
	.section	.text._ZSt11make_uniqueIN3org9blobstore15BlobstoreClientEJEENSt9_MakeUniqIT_E15__single_objectEDpOT0_,"axG",@progbits,_ZSt11make_uniqueIN3org9blobstore15BlobstoreClientEJEENSt9_MakeUniqIT_E15__single_objectEDpOT0_,comdat
	.weak	_ZSt11make_uniqueIN3org9blobstore15BlobstoreClientEJEENSt9_MakeUniqIT_E15__single_objectEDpOT0_ // -- Begin function _ZSt11make_uniqueIN3org9blobstore15BlobstoreClientEJEENSt9_MakeUniqIT_E15__single_objectEDpOT0_
	.p2align	2
	.type	_ZSt11make_uniqueIN3org9blobstore15BlobstoreClientEJEENSt9_MakeUniqIT_E15__single_objectEDpOT0_,@function
_ZSt11make_uniqueIN3org9blobstore15BlobstoreClientEJEENSt9_MakeUniqIT_E15__single_objectEDpOT0_: // @_ZSt11make_uniqueIN3org9blobstore15BlobstoreClientEJEENSt9_MakeUniqIT_E15__single_objectEDpOT0_
.Lfunc_begin25:
	.loc	32 962 0 is_stmt 1              // /usr/bin/../lib/gcc/aarch64-linux-gnu/11/../../../../include/c++/11/bits/unique_ptr.h:962:0
	.cfi_startproc
	.cfi_personality 156, DW.ref.__gxx_personality_v0
	.cfi_lsda 28, .Lexception3
// %bb.0:
	sub	sp, sp, #64
	stp	x29, x30, [sp, #48]             // 16-byte Folded Spill
	add	x29, sp, #48
	.cfi_def_cfa w29, 16
	.cfi_offset w30, -8
	.cfi_offset w29, -16
	str	x8, [sp, #8]                    // 8-byte Folded Spill
	stur	x8, [x29, #-8]
	mov	x0, #16
.Ltmp87:
	.loc	32 962 30 prologue_end          // /usr/bin/../lib/gcc/aarch64-linux-gnu/11/../../../../include/c++/11/bits/unique_ptr.h:962:30
	bl	_Znwm
	str	x0, [sp, #16]                   // 8-byte Folded Spill
.Ltmp84:
	.loc	32 0 0 is_stmt 0                // /usr/bin/../lib/gcc/aarch64-linux-gnu/11/../../../../include/c++/11/bits/unique_ptr.h:0:0
	adrp	x8, _ZN3org9blobstore15BlobstoreClientC1Ev
	add	x8, x8, :lo12:_ZN3org9blobstore15BlobstoreClientC1Ev
	.loc	32 962 34                       // /usr/bin/../lib/gcc/aarch64-linux-gnu/11/../../../../include/c++/11/bits/unique_ptr.h:962:34
	blr	x8
.Ltmp85:
	b	.LBB25_1
.LBB25_1:
	.loc	32 0 34                         // /usr/bin/../lib/gcc/aarch64-linux-gnu/11/../../../../include/c++/11/bits/unique_ptr.h:0:34
	ldr	x1, [sp, #16]                   // 8-byte Folded Reload
	ldr	x0, [sp, #8]                    // 8-byte Folded Reload
	.loc	32 962 14                       // /usr/bin/../lib/gcc/aarch64-linux-gnu/11/../../../../include/c++/11/bits/unique_ptr.h:962:14
	bl	_ZNSt10unique_ptrIN3org9blobstore15BlobstoreClientESt14default_deleteIS2_EEC2IS4_vEEPS2_
	.loc	32 962 7                        // /usr/bin/../lib/gcc/aarch64-linux-gnu/11/../../../../include/c++/11/bits/unique_ptr.h:962:7
	ldp	x29, x30, [sp, #48]             // 16-byte Folded Reload
	add	sp, sp, #64
	ret
.LBB25_2:
.Ltmp86:
	.loc	32 962 72                       // /usr/bin/../lib/gcc/aarch64-linux-gnu/11/../../../../include/c++/11/bits/unique_ptr.h:962:72
	mov	x9, x0
	ldr	x0, [sp, #16]                   // 8-byte Folded Reload
	mov	w8, w1
	stur	x9, [x29, #-16]
	stur	w8, [x29, #-20]
	.loc	32 962 30                       // /usr/bin/../lib/gcc/aarch64-linux-gnu/11/../../../../include/c++/11/bits/unique_ptr.h:962:30
	bl	_ZdlPv
	b	.LBB25_3
.LBB25_3:
	ldur	x0, [x29, #-16]
	bl	_Unwind_Resume
.Ltmp88:
.Lfunc_end25:
	.size	_ZSt11make_uniqueIN3org9blobstore15BlobstoreClientEJEENSt9_MakeUniqIT_E15__single_objectEDpOT0_, .Lfunc_end25-_ZSt11make_uniqueIN3org9blobstore15BlobstoreClientEJEENSt9_MakeUniqIT_E15__single_objectEDpOT0_
	.cfi_endproc
	.section	.gcc_except_table._ZSt11make_uniqueIN3org9blobstore15BlobstoreClientEJEENSt9_MakeUniqIT_E15__single_objectEDpOT0_,"aG",@progbits,_ZSt11make_uniqueIN3org9blobstore15BlobstoreClientEJEENSt9_MakeUniqIT_E15__single_objectEDpOT0_,comdat
	.p2align	2
GCC_except_table25:
.Lexception3:
	.byte	255                             // @LPStart Encoding = omit
	.byte	255                             // @TType Encoding = omit
	.byte	1                               // Call site Encoding = uleb128
	.uleb128 .Lcst_end3-.Lcst_begin3
.Lcst_begin3:
	.uleb128 .Lfunc_begin25-.Lfunc_begin25  // >> Call Site 1 <<
	.uleb128 .Ltmp84-.Lfunc_begin25         //   Call between .Lfunc_begin25 and .Ltmp84
	.byte	0                               //     has no landing pad
	.byte	0                               //   On action: cleanup
	.uleb128 .Ltmp84-.Lfunc_begin25         // >> Call Site 2 <<
	.uleb128 .Ltmp85-.Ltmp84                //   Call between .Ltmp84 and .Ltmp85
	.uleb128 .Ltmp86-.Lfunc_begin25         //     jumps to .Ltmp86
	.byte	0                               //   On action: cleanup
	.uleb128 .Ltmp85-.Lfunc_begin25         // >> Call Site 3 <<
	.uleb128 .Lfunc_end25-.Ltmp85           //   Call between .Ltmp85 and .Lfunc_end25
	.byte	0                               //     has no landing pad
	.byte	0                               //   On action: cleanup
.Lcst_end3:
	.p2align	2
                                        // -- End function
	.section	.text._ZNSt13unordered_mapImN3org9blobstore15BlobstoreClient4impl4BlobESt4hashImESt8equal_toImESaISt4pairIKmS4_EEEC2Ev,"axG",@progbits,_ZNSt13unordered_mapImN3org9blobstore15BlobstoreClient4impl4BlobESt4hashImESt8equal_toImESaISt4pairIKmS4_EEEC2Ev,comdat
	.weak	_ZNSt13unordered_mapImN3org9blobstore15BlobstoreClient4impl4BlobESt4hashImESt8equal_toImESaISt4pairIKmS4_EEEC2Ev // -- Begin function _ZNSt13unordered_mapImN3org9blobstore15BlobstoreClient4impl4BlobESt4hashImESt8equal_toImESaISt4pairIKmS4_EEEC2Ev
	.p2align	2
	.type	_ZNSt13unordered_mapImN3org9blobstore15BlobstoreClient4impl4BlobESt4hashImESt8equal_toImESaISt4pairIKmS4_EEEC2Ev,@function
_ZNSt13unordered_mapImN3org9blobstore15BlobstoreClient4impl4BlobESt4hashImESt8equal_toImESaISt4pairIKmS4_EEEC2Ev: // @_ZNSt13unordered_mapImN3org9blobstore15BlobstoreClient4impl4BlobESt4hashImESt8equal_toImESaISt4pairIKmS4_EEEC2Ev
.Lfunc_begin26:
	.loc	21 141 0 is_stmt 1              // /usr/bin/../lib/gcc/aarch64-linux-gnu/11/../../../../include/c++/11/bits/unordered_map.h:141:0
	.cfi_startproc
// %bb.0:
	sub	sp, sp, #32
	stp	x29, x30, [sp, #16]             // 16-byte Folded Spill
	add	x29, sp, #16
	.cfi_def_cfa w29, 16
	.cfi_offset w30, -8
	.cfi_offset w29, -16
	str	x0, [sp, #8]
	ldr	x0, [sp, #8]
.Ltmp89:
	.loc	21 141 7 prologue_end           // /usr/bin/../lib/gcc/aarch64-linux-gnu/11/../../../../include/c++/11/bits/unordered_map.h:141:7
	bl	_ZNSt10_HashtableImSt4pairIKmN3org9blobstore15BlobstoreClient4impl4BlobEESaIS7_ENSt8__detail10_Select1stESt8equal_toImESt4hashImENS9_18_Mod_range_hashingENS9_20_Default_ranged_hashENS9_20_Prime_rehash_policyENS9_17_Hashtable_traitsILb0ELb0ELb1EEEEC2Ev
	.loc	21 141 31 is_stmt 0             // /usr/bin/../lib/gcc/aarch64-linux-gnu/11/../../../../include/c++/11/bits/unordered_map.h:141:31
	ldp	x29, x30, [sp, #16]             // 16-byte Folded Reload
	add	sp, sp, #32
	ret
.Ltmp90:
.Lfunc_end26:
	.size	_ZNSt13unordered_mapImN3org9blobstore15BlobstoreClient4impl4BlobESt4hashImESt8equal_toImESaISt4pairIKmS4_EEEC2Ev, .Lfunc_end26-_ZNSt13unordered_mapImN3org9blobstore15BlobstoreClient4impl4BlobESt4hashImESt8equal_toImESaISt4pairIKmS4_EEEC2Ev
	.cfi_endproc
                                        // -- End function
	.section	.text._ZNSt10_HashtableImSt4pairIKmN3org9blobstore15BlobstoreClient4impl4BlobEESaIS7_ENSt8__detail10_Select1stESt8equal_toImESt4hashImENS9_18_Mod_range_hashingENS9_20_Default_ranged_hashENS9_20_Prime_rehash_policyENS9_17_Hashtable_traitsILb0ELb0ELb1EEEEC2Ev,"axG",@progbits,_ZNSt10_HashtableImSt4pairIKmN3org9blobstore15BlobstoreClient4impl4BlobEESaIS7_ENSt8__detail10_Select1stESt8equal_toImESt4hashImENS9_18_Mod_range_hashingENS9_20_Default_ranged_hashENS9_20_Prime_rehash_policyENS9_17_Hashtable_traitsILb0ELb0ELb1EEEEC2Ev,comdat
	.weak	_ZNSt10_HashtableImSt4pairIKmN3org9blobstore15BlobstoreClient4impl4BlobEESaIS7_ENSt8__detail10_Select1stESt8equal_toImESt4hashImENS9_18_Mod_range_hashingENS9_20_Default_ranged_hashENS9_20_Prime_rehash_policyENS9_17_Hashtable_traitsILb0ELb0ELb1EEEEC2Ev // -- Begin function _ZNSt10_HashtableImSt4pairIKmN3org9blobstore15BlobstoreClient4impl4BlobEESaIS7_ENSt8__detail10_Select1stESt8equal_toImESt4hashImENS9_18_Mod_range_hashingENS9_20_Default_ranged_hashENS9_20_Prime_rehash_policyENS9_17_Hashtable_traitsILb0ELb0ELb1EEEEC2Ev
	.p2align	2
	.type	_ZNSt10_HashtableImSt4pairIKmN3org9blobstore15BlobstoreClient4impl4BlobEESaIS7_ENSt8__detail10_Select1stESt8equal_toImESt4hashImENS9_18_Mod_range_hashingENS9_20_Default_ranged_hashENS9_20_Prime_rehash_policyENS9_17_Hashtable_traitsILb0ELb0ELb1EEEEC2Ev,@function
_ZNSt10_HashtableImSt4pairIKmN3org9blobstore15BlobstoreClient4impl4BlobEESaIS7_ENSt8__detail10_Select1stESt8equal_toImESt4hashImENS9_18_Mod_range_hashingENS9_20_Default_ranged_hashENS9_20_Prime_rehash_policyENS9_17_Hashtable_traitsILb0ELb0ELb1EEEEC2Ev: // @_ZNSt10_HashtableImSt4pairIKmN3org9blobstore15BlobstoreClient4impl4BlobEESaIS7_ENSt8__detail10_Select1stESt8equal_toImESt4hashImENS9_18_Mod_range_hashingENS9_20_Default_ranged_hashENS9_20_Prime_rehash_policyENS9_17_Hashtable_traitsILb0ELb0ELb1EEEEC2Ev
.Lfunc_begin27:
	.loc	20 528 0 is_stmt 1              // /usr/bin/../lib/gcc/aarch64-linux-gnu/11/../../../../include/c++/11/bits/hashtable.h:528:0
	.cfi_startproc
// %bb.0:
	sub	sp, sp, #32
	stp	x29, x30, [sp, #16]             // 16-byte Folded Spill
	add	x29, sp, #16
	.cfi_def_cfa w29, 16
	.cfi_offset w30, -8
	.cfi_offset w29, -16
	str	x0, [sp, #8]
	ldr	x0, [sp, #8]
	str	x0, [sp]                        // 8-byte Folded Spill
.Ltmp91:
	.loc	20 528 7 prologue_end           // /usr/bin/../lib/gcc/aarch64-linux-gnu/11/../../../../include/c++/11/bits/hashtable.h:528:7
	bl	_ZNSt8__detail15_Hashtable_baseImSt4pairIKmN3org9blobstore15BlobstoreClient4impl4BlobEENS_10_Select1stESt8equal_toImESt4hashImENS_18_Mod_range_hashingENS_20_Default_ranged_hashENS_17_Hashtable_traitsILb0ELb0ELb1EEEEC2Ev
	ldr	x0, [sp]                        // 8-byte Folded Reload
	bl	_ZNSt8__detail16_Hashtable_allocISaINS_10_Hash_nodeISt4pairIKmN3org9blobstore15BlobstoreClient4impl4BlobEELb0EEEEEC2Ev
	ldr	x8, [sp]                        // 8-byte Folded Reload
	.loc	20 392 35                       // /usr/bin/../lib/gcc/aarch64-linux-gnu/11/../../../../include/c++/11/bits/hashtable.h:392:35
	add	x9, x8, #48
	.loc	20 392 21 is_stmt 0             // /usr/bin/../lib/gcc/aarch64-linux-gnu/11/../../../../include/c++/11/bits/hashtable.h:392:21
	str	x9, [x8]
	mov	x9, #1
	.loc	20 393 17 is_stmt 1             // /usr/bin/../lib/gcc/aarch64-linux-gnu/11/../../../../include/c++/11/bits/hashtable.h:393:17
	str	x9, [x8, #8]
	.loc	20 528 7                        // /usr/bin/../lib/gcc/aarch64-linux-gnu/11/../../../../include/c++/11/bits/hashtable.h:528:7
	add	x0, x8, #16
	bl	_ZNSt8__detail15_Hash_node_baseC2Ev
	ldr	x8, [sp]                        // 8-byte Folded Reload
	.loc	20 395 17                       // /usr/bin/../lib/gcc/aarch64-linux-gnu/11/../../../../include/c++/11/bits/hashtable.h:395:17
	str	xzr, [x8, #24]
	.loc	20 528 7                        // /usr/bin/../lib/gcc/aarch64-linux-gnu/11/../../../../include/c++/11/bits/hashtable.h:528:7
	add	x0, x8, #32
	fmov	s0, #1.00000000
	bl	_ZNSt8__detail20_Prime_rehash_policyC2Ef
	ldr	x8, [sp]                        // 8-byte Folded Reload
                                        // kill: def $x9 killed $xzr
	.loc	20 404 23                       // /usr/bin/../lib/gcc/aarch64-linux-gnu/11/../../../../include/c++/11/bits/hashtable.h:404:23
	str	xzr, [x8, #48]
	.loc	20 528 28                       // /usr/bin/../lib/gcc/aarch64-linux-gnu/11/../../../../include/c++/11/bits/hashtable.h:528:28
	ldp	x29, x30, [sp, #16]             // 16-byte Folded Reload
	add	sp, sp, #32
	ret
.Ltmp92:
.Lfunc_end27:
	.size	_ZNSt10_HashtableImSt4pairIKmN3org9blobstore15BlobstoreClient4impl4BlobEESaIS7_ENSt8__detail10_Select1stESt8equal_toImESt4hashImENS9_18_Mod_range_hashingENS9_20_Default_ranged_hashENS9_20_Prime_rehash_policyENS9_17_Hashtable_traitsILb0ELb0ELb1EEEEC2Ev, .Lfunc_end27-_ZNSt10_HashtableImSt4pairIKmN3org9blobstore15BlobstoreClient4impl4BlobEESaIS7_ENSt8__detail10_Select1stESt8equal_toImESt4hashImENS9_18_Mod_range_hashingENS9_20_Default_ranged_hashENS9_20_Prime_rehash_policyENS9_17_Hashtable_traitsILb0ELb0ELb1EEEEC2Ev
	.cfi_endproc
                                        // -- End function
	.section	.text._ZNSt8__detail15_Hashtable_baseImSt4pairIKmN3org9blobstore15BlobstoreClient4impl4BlobEENS_10_Select1stESt8equal_toImESt4hashImENS_18_Mod_range_hashingENS_20_Default_ranged_hashENS_17_Hashtable_traitsILb0ELb0ELb1EEEEC2Ev,"axG",@progbits,_ZNSt8__detail15_Hashtable_baseImSt4pairIKmN3org9blobstore15BlobstoreClient4impl4BlobEENS_10_Select1stESt8equal_toImESt4hashImENS_18_Mod_range_hashingENS_20_Default_ranged_hashENS_17_Hashtable_traitsILb0ELb0ELb1EEEEC2Ev,comdat
	.weak	_ZNSt8__detail15_Hashtable_baseImSt4pairIKmN3org9blobstore15BlobstoreClient4impl4BlobEENS_10_Select1stESt8equal_toImESt4hashImENS_18_Mod_range_hashingENS_20_Default_ranged_hashENS_17_Hashtable_traitsILb0ELb0ELb1EEEEC2Ev // -- Begin function _ZNSt8__detail15_Hashtable_baseImSt4pairIKmN3org9blobstore15BlobstoreClient4impl4BlobEENS_10_Select1stESt8equal_toImESt4hashImENS_18_Mod_range_hashingENS_20_Default_ranged_hashENS_17_Hashtable_traitsILb0ELb0ELb1EEEEC2Ev
	.p2align	2
	.type	_ZNSt8__detail15_Hashtable_baseImSt4pairIKmN3org9blobstore15BlobstoreClient4impl4BlobEENS_10_Select1stESt8equal_toImESt4hashImENS_18_Mod_range_hashingENS_20_Default_ranged_hashENS_17_Hashtable_traitsILb0ELb0ELb1EEEEC2Ev,@function
_ZNSt8__detail15_Hashtable_baseImSt4pairIKmN3org9blobstore15BlobstoreClient4impl4BlobEENS_10_Select1stESt8equal_toImESt4hashImENS_18_Mod_range_hashingENS_20_Default_ranged_hashENS_17_Hashtable_traitsILb0ELb0ELb1EEEEC2Ev: // @_ZNSt8__detail15_Hashtable_baseImSt4pairIKmN3org9blobstore15BlobstoreClient4impl4BlobEENS_10_Select1stESt8equal_toImESt4hashImENS_18_Mod_range_hashingENS_20_Default_ranged_hashENS_17_Hashtable_traitsILb0ELb0ELb1EEEEC2Ev
.Lfunc_begin28:
	.loc	17 1604 0                       // /usr/bin/../lib/gcc/aarch64-linux-gnu/11/../../../../include/c++/11/bits/hashtable_policy.h:1604:0
	.cfi_startproc
// %bb.0:
	sub	sp, sp, #32
	stp	x29, x30, [sp, #16]             // 16-byte Folded Spill
	add	x29, sp, #16
	.cfi_def_cfa w29, 16
	.cfi_offset w30, -8
	.cfi_offset w29, -16
	str	x0, [sp, #8]
	ldr	x0, [sp, #8]
	str	x0, [sp]                        // 8-byte Folded Spill
.Ltmp93:
	.loc	17 1604 7 prologue_end          // /usr/bin/../lib/gcc/aarch64-linux-gnu/11/../../../../include/c++/11/bits/hashtable_policy.h:1604:7
	bl	_ZNSt8__detail15_Hash_code_baseImSt4pairIKmN3org9blobstore15BlobstoreClient4impl4BlobEENS_10_Select1stESt4hashImENS_18_Mod_range_hashingENS_20_Default_ranged_hashELb0EEC2Ev
	ldr	x0, [sp]                        // 8-byte Folded Reload
	bl	_ZNSt8__detail21_Hashtable_ebo_helperILi0ESt8equal_toImELb1EEC2Ev
	.loc	17 1604 33 is_stmt 0            // /usr/bin/../lib/gcc/aarch64-linux-gnu/11/../../../../include/c++/11/bits/hashtable_policy.h:1604:33
	ldp	x29, x30, [sp, #16]             // 16-byte Folded Reload
	add	sp, sp, #32
	ret
.Ltmp94:
.Lfunc_end28:
	.size	_ZNSt8__detail15_Hashtable_baseImSt4pairIKmN3org9blobstore15BlobstoreClient4impl4BlobEENS_10_Select1stESt8equal_toImESt4hashImENS_18_Mod_range_hashingENS_20_Default_ranged_hashENS_17_Hashtable_traitsILb0ELb0ELb1EEEEC2Ev, .Lfunc_end28-_ZNSt8__detail15_Hashtable_baseImSt4pairIKmN3org9blobstore15BlobstoreClient4impl4BlobEENS_10_Select1stESt8equal_toImESt4hashImENS_18_Mod_range_hashingENS_20_Default_ranged_hashENS_17_Hashtable_traitsILb0ELb0ELb1EEEEC2Ev
	.cfi_endproc
                                        // -- End function
	.section	.text._ZNSt8__detail16_Hashtable_allocISaINS_10_Hash_nodeISt4pairIKmN3org9blobstore15BlobstoreClient4impl4BlobEELb0EEEEEC2Ev,"axG",@progbits,_ZNSt8__detail16_Hashtable_allocISaINS_10_Hash_nodeISt4pairIKmN3org9blobstore15BlobstoreClient4impl4BlobEELb0EEEEEC2Ev,comdat
	.weak	_ZNSt8__detail16_Hashtable_allocISaINS_10_Hash_nodeISt4pairIKmN3org9blobstore15BlobstoreClient4impl4BlobEELb0EEEEEC2Ev // -- Begin function _ZNSt8__detail16_Hashtable_allocISaINS_10_Hash_nodeISt4pairIKmN3org9blobstore15BlobstoreClient4impl4BlobEELb0EEEEEC2Ev
	.p2align	2
	.type	_ZNSt8__detail16_Hashtable_allocISaINS_10_Hash_nodeISt4pairIKmN3org9blobstore15BlobstoreClient4impl4BlobEELb0EEEEEC2Ev,@function
_ZNSt8__detail16_Hashtable_allocISaINS_10_Hash_nodeISt4pairIKmN3org9blobstore15BlobstoreClient4impl4BlobEELb0EEEEEC2Ev: // @_ZNSt8__detail16_Hashtable_allocISaINS_10_Hash_nodeISt4pairIKmN3org9blobstore15BlobstoreClient4impl4BlobEELb0EEEEEC2Ev
.Lfunc_begin29:
	.loc	17 1823 0 is_stmt 1             // /usr/bin/../lib/gcc/aarch64-linux-gnu/11/../../../../include/c++/11/bits/hashtable_policy.h:1823:0
	.cfi_startproc
// %bb.0:
	sub	sp, sp, #32
	stp	x29, x30, [sp, #16]             // 16-byte Folded Spill
	add	x29, sp, #16
	.cfi_def_cfa w29, 16
	.cfi_offset w30, -8
	.cfi_offset w29, -16
	str	x0, [sp, #8]
	ldr	x0, [sp, #8]
.Ltmp95:
	.loc	17 1823 7 prologue_end          // /usr/bin/../lib/gcc/aarch64-linux-gnu/11/../../../../include/c++/11/bits/hashtable_policy.h:1823:7
	bl	_ZNSt8__detail21_Hashtable_ebo_helperILi0ESaINS_10_Hash_nodeISt4pairIKmN3org9blobstore15BlobstoreClient4impl4BlobEELb0EEEELb1EEC2Ev
	.loc	17 1823 34 is_stmt 0            // /usr/bin/../lib/gcc/aarch64-linux-gnu/11/../../../../include/c++/11/bits/hashtable_policy.h:1823:34
	ldp	x29, x30, [sp, #16]             // 16-byte Folded Reload
	add	sp, sp, #32
	ret
.Ltmp96:
.Lfunc_end29:
	.size	_ZNSt8__detail16_Hashtable_allocISaINS_10_Hash_nodeISt4pairIKmN3org9blobstore15BlobstoreClient4impl4BlobEELb0EEEEEC2Ev, .Lfunc_end29-_ZNSt8__detail16_Hashtable_allocISaINS_10_Hash_nodeISt4pairIKmN3org9blobstore15BlobstoreClient4impl4BlobEELb0EEEEEC2Ev
	.cfi_endproc
                                        // -- End function
	.section	.text._ZNSt8__detail15_Hash_node_baseC2Ev,"axG",@progbits,_ZNSt8__detail15_Hash_node_baseC2Ev,comdat
	.weak	_ZNSt8__detail15_Hash_node_baseC2Ev // -- Begin function _ZNSt8__detail15_Hash_node_baseC2Ev
	.p2align	2
	.type	_ZNSt8__detail15_Hash_node_baseC2Ev,@function
_ZNSt8__detail15_Hash_node_baseC2Ev:    // @_ZNSt8__detail15_Hash_node_baseC2Ev
.Lfunc_begin30:
	.loc	17 219 0 is_stmt 1              // /usr/bin/../lib/gcc/aarch64-linux-gnu/11/../../../../include/c++/11/bits/hashtable_policy.h:219:0
	.cfi_startproc
// %bb.0:
	sub	sp, sp, #16
	.cfi_def_cfa_offset 16
	str	x0, [sp, #8]
	ldr	x8, [sp, #8]
                                        // kill: def $x9 killed $xzr
.Ltmp98:
	.loc	17 219 34 prologue_end          // /usr/bin/../lib/gcc/aarch64-linux-gnu/11/../../../../include/c++/11/bits/hashtable_policy.h:219:34
	str	xzr, [x8]
	.loc	17 219 45 is_stmt 0             // /usr/bin/../lib/gcc/aarch64-linux-gnu/11/../../../../include/c++/11/bits/hashtable_policy.h:219:45
	add	sp, sp, #16
	ret
.Ltmp99:
.Lfunc_end30:
	.size	_ZNSt8__detail15_Hash_node_baseC2Ev, .Lfunc_end30-_ZNSt8__detail15_Hash_node_baseC2Ev
	.cfi_endproc
                                        // -- End function
	.section	.text._ZNSt8__detail20_Prime_rehash_policyC2Ef,"axG",@progbits,_ZNSt8__detail20_Prime_rehash_policyC2Ef,comdat
	.weak	_ZNSt8__detail20_Prime_rehash_policyC2Ef // -- Begin function _ZNSt8__detail20_Prime_rehash_policyC2Ef
	.p2align	2
	.type	_ZNSt8__detail20_Prime_rehash_policyC2Ef,@function
_ZNSt8__detail20_Prime_rehash_policyC2Ef: // @_ZNSt8__detail20_Prime_rehash_policyC2Ef
.Lfunc_begin31:
	.loc	17 447 0 is_stmt 1              // /usr/bin/../lib/gcc/aarch64-linux-gnu/11/../../../../include/c++/11/bits/hashtable_policy.h:447:0
	.cfi_startproc
// %bb.0:
	sub	sp, sp, #16
	.cfi_def_cfa_offset 16
	str	x0, [sp, #8]
	str	s0, [sp, #4]
	ldr	x8, [sp, #8]
.Ltmp101:
	.loc	17 447 26 prologue_end          // /usr/bin/../lib/gcc/aarch64-linux-gnu/11/../../../../include/c++/11/bits/hashtable_policy.h:447:26
	ldr	w9, [sp, #4]
	.loc	17 447 7 is_stmt 0              // /usr/bin/../lib/gcc/aarch64-linux-gnu/11/../../../../include/c++/11/bits/hashtable_policy.h:447:7
	str	w9, [x8]
	.loc	17 447 32                       // /usr/bin/../lib/gcc/aarch64-linux-gnu/11/../../../../include/c++/11/bits/hashtable_policy.h:447:32
	str	xzr, [x8, #8]
	.loc	17 447 52                       // /usr/bin/../lib/gcc/aarch64-linux-gnu/11/../../../../include/c++/11/bits/hashtable_policy.h:447:52
	add	sp, sp, #16
	ret
.Ltmp102:
.Lfunc_end31:
	.size	_ZNSt8__detail20_Prime_rehash_policyC2Ef, .Lfunc_end31-_ZNSt8__detail20_Prime_rehash_policyC2Ef
	.cfi_endproc
                                        // -- End function
	.section	.text._ZNSt8__detail15_Hash_code_baseImSt4pairIKmN3org9blobstore15BlobstoreClient4impl4BlobEENS_10_Select1stESt4hashImENS_18_Mod_range_hashingENS_20_Default_ranged_hashELb0EEC2Ev,"axG",@progbits,_ZNSt8__detail15_Hash_code_baseImSt4pairIKmN3org9blobstore15BlobstoreClient4impl4BlobEENS_10_Select1stESt4hashImENS_18_Mod_range_hashingENS_20_Default_ranged_hashELb0EEC2Ev,comdat
	.weak	_ZNSt8__detail15_Hash_code_baseImSt4pairIKmN3org9blobstore15BlobstoreClient4impl4BlobEENS_10_Select1stESt4hashImENS_18_Mod_range_hashingENS_20_Default_ranged_hashELb0EEC2Ev // -- Begin function _ZNSt8__detail15_Hash_code_baseImSt4pairIKmN3org9blobstore15BlobstoreClient4impl4BlobEENS_10_Select1stESt4hashImENS_18_Mod_range_hashingENS_20_Default_ranged_hashELb0EEC2Ev
	.p2align	2
	.type	_ZNSt8__detail15_Hash_code_baseImSt4pairIKmN3org9blobstore15BlobstoreClient4impl4BlobEENS_10_Select1stESt4hashImENS_18_Mod_range_hashingENS_20_Default_ranged_hashELb0EEC2Ev,@function
_ZNSt8__detail15_Hash_code_baseImSt4pairIKmN3org9blobstore15BlobstoreClient4impl4BlobEENS_10_Select1stESt4hashImENS_18_Mod_range_hashingENS_20_Default_ranged_hashELb0EEC2Ev: // @_ZNSt8__detail15_Hash_code_baseImSt4pairIKmN3org9blobstore15BlobstoreClient4impl4BlobEENS_10_Select1stESt4hashImENS_18_Mod_range_hashingENS_20_Default_ranged_hashELb0EEC2Ev
.Lfunc_begin32:
	.loc	17 1210 0 is_stmt 1             // /usr/bin/../lib/gcc/aarch64-linux-gnu/11/../../../../include/c++/11/bits/hashtable_policy.h:1210:0
	.cfi_startproc
// %bb.0:
	sub	sp, sp, #32
	stp	x29, x30, [sp, #16]             // 16-byte Folded Spill
	add	x29, sp, #16
	.cfi_def_cfa w29, 16
	.cfi_offset w30, -8
	.cfi_offset w29, -16
	str	x0, [sp, #8]
	ldr	x0, [sp, #8]
.Ltmp103:
	.loc	17 1210 7 prologue_end          // /usr/bin/../lib/gcc/aarch64-linux-gnu/11/../../../../include/c++/11/bits/hashtable_policy.h:1210:7
	bl	_ZNSt8__detail21_Hashtable_ebo_helperILi1ESt4hashImELb1EEC2Ev
	.loc	17 1210 33 is_stmt 0            // /usr/bin/../lib/gcc/aarch64-linux-gnu/11/../../../../include/c++/11/bits/hashtable_policy.h:1210:33
	ldp	x29, x30, [sp, #16]             // 16-byte Folded Reload
	add	sp, sp, #32
	ret
.Ltmp104:
.Lfunc_end32:
	.size	_ZNSt8__detail15_Hash_code_baseImSt4pairIKmN3org9blobstore15BlobstoreClient4impl4BlobEENS_10_Select1stESt4hashImENS_18_Mod_range_hashingENS_20_Default_ranged_hashELb0EEC2Ev, .Lfunc_end32-_ZNSt8__detail15_Hash_code_baseImSt4pairIKmN3org9blobstore15BlobstoreClient4impl4BlobEENS_10_Select1stESt4hashImENS_18_Mod_range_hashingENS_20_Default_ranged_hashELb0EEC2Ev
	.cfi_endproc
                                        // -- End function
	.section	.text._ZNSt8__detail21_Hashtable_ebo_helperILi0ESt8equal_toImELb1EEC2Ev,"axG",@progbits,_ZNSt8__detail21_Hashtable_ebo_helperILi0ESt8equal_toImELb1EEC2Ev,comdat
	.weak	_ZNSt8__detail21_Hashtable_ebo_helperILi0ESt8equal_toImELb1EEC2Ev // -- Begin function _ZNSt8__detail21_Hashtable_ebo_helperILi0ESt8equal_toImELb1EEC2Ev
	.p2align	2
	.type	_ZNSt8__detail21_Hashtable_ebo_helperILi0ESt8equal_toImELb1EEC2Ev,@function
_ZNSt8__detail21_Hashtable_ebo_helperILi0ESt8equal_toImELb1EEC2Ev: // @_ZNSt8__detail21_Hashtable_ebo_helperILi0ESt8equal_toImELb1EEC2Ev
.Lfunc_begin33:
	.loc	17 1127 0 is_stmt 1             // /usr/bin/../lib/gcc/aarch64-linux-gnu/11/../../../../include/c++/11/bits/hashtable_policy.h:1127:0
	.cfi_startproc
// %bb.0:
	sub	sp, sp, #16
	.cfi_def_cfa_offset 16
	str	x0, [sp, #8]
.Ltmp106:
	.loc	17 1127 67 prologue_end         // /usr/bin/../lib/gcc/aarch64-linux-gnu/11/../../../../include/c++/11/bits/hashtable_policy.h:1127:67
	add	sp, sp, #16
	ret
.Ltmp107:
.Lfunc_end33:
	.size	_ZNSt8__detail21_Hashtable_ebo_helperILi0ESt8equal_toImELb1EEC2Ev, .Lfunc_end33-_ZNSt8__detail21_Hashtable_ebo_helperILi0ESt8equal_toImELb1EEC2Ev
	.cfi_endproc
                                        // -- End function
	.section	.text._ZNSt8__detail21_Hashtable_ebo_helperILi1ESt4hashImELb1EEC2Ev,"axG",@progbits,_ZNSt8__detail21_Hashtable_ebo_helperILi1ESt4hashImELb1EEC2Ev,comdat
	.weak	_ZNSt8__detail21_Hashtable_ebo_helperILi1ESt4hashImELb1EEC2Ev // -- Begin function _ZNSt8__detail21_Hashtable_ebo_helperILi1ESt4hashImELb1EEC2Ev
	.p2align	2
	.type	_ZNSt8__detail21_Hashtable_ebo_helperILi1ESt4hashImELb1EEC2Ev,@function
_ZNSt8__detail21_Hashtable_ebo_helperILi1ESt4hashImELb1EEC2Ev: // @_ZNSt8__detail21_Hashtable_ebo_helperILi1ESt4hashImELb1EEC2Ev
.Lfunc_begin34:
	.loc	17 1127 0                       // /usr/bin/../lib/gcc/aarch64-linux-gnu/11/../../../../include/c++/11/bits/hashtable_policy.h:1127:0
	.cfi_startproc
// %bb.0:
	sub	sp, sp, #16
	.cfi_def_cfa_offset 16
	str	x0, [sp, #8]
.Ltmp109:
	.loc	17 1127 67 prologue_end         // /usr/bin/../lib/gcc/aarch64-linux-gnu/11/../../../../include/c++/11/bits/hashtable_policy.h:1127:67
	add	sp, sp, #16
	ret
.Ltmp110:
.Lfunc_end34:
	.size	_ZNSt8__detail21_Hashtable_ebo_helperILi1ESt4hashImELb1EEC2Ev, .Lfunc_end34-_ZNSt8__detail21_Hashtable_ebo_helperILi1ESt4hashImELb1EEC2Ev
	.cfi_endproc
                                        // -- End function
	.section	.text._ZNSt8__detail21_Hashtable_ebo_helperILi0ESaINS_10_Hash_nodeISt4pairIKmN3org9blobstore15BlobstoreClient4impl4BlobEELb0EEEELb1EEC2Ev,"axG",@progbits,_ZNSt8__detail21_Hashtable_ebo_helperILi0ESaINS_10_Hash_nodeISt4pairIKmN3org9blobstore15BlobstoreClient4impl4BlobEELb0EEEELb1EEC2Ev,comdat
	.weak	_ZNSt8__detail21_Hashtable_ebo_helperILi0ESaINS_10_Hash_nodeISt4pairIKmN3org9blobstore15BlobstoreClient4impl4BlobEELb0EEEELb1EEC2Ev // -- Begin function _ZNSt8__detail21_Hashtable_ebo_helperILi0ESaINS_10_Hash_nodeISt4pairIKmN3org9blobstore15BlobstoreClient4impl4BlobEELb0EEEELb1EEC2Ev
	.p2align	2
	.type	_ZNSt8__detail21_Hashtable_ebo_helperILi0ESaINS_10_Hash_nodeISt4pairIKmN3org9blobstore15BlobstoreClient4impl4BlobEELb0EEEELb1EEC2Ev,@function
_ZNSt8__detail21_Hashtable_ebo_helperILi0ESaINS_10_Hash_nodeISt4pairIKmN3org9blobstore15BlobstoreClient4impl4BlobEELb0EEEELb1EEC2Ev: // @_ZNSt8__detail21_Hashtable_ebo_helperILi0ESaINS_10_Hash_nodeISt4pairIKmN3org9blobstore15BlobstoreClient4impl4BlobEELb0EEEELb1EEC2Ev
.Lfunc_begin35:
	.loc	17 1127 0                       // /usr/bin/../lib/gcc/aarch64-linux-gnu/11/../../../../include/c++/11/bits/hashtable_policy.h:1127:0
	.cfi_startproc
// %bb.0:
	sub	sp, sp, #32
	stp	x29, x30, [sp, #16]             // 16-byte Folded Spill
	add	x29, sp, #16
	.cfi_def_cfa w29, 16
	.cfi_offset w30, -8
	.cfi_offset w29, -16
	str	x0, [sp, #8]
	ldr	x0, [sp, #8]
.Ltmp111:
	.loc	17 1127 59 prologue_end         // /usr/bin/../lib/gcc/aarch64-linux-gnu/11/../../../../include/c++/11/bits/hashtable_policy.h:1127:59
	bl	_ZNSaINSt8__detail10_Hash_nodeISt4pairIKmN3org9blobstore15BlobstoreClient4impl4BlobEELb0EEEEC2Ev
	.loc	17 1127 67 is_stmt 0            // /usr/bin/../lib/gcc/aarch64-linux-gnu/11/../../../../include/c++/11/bits/hashtable_policy.h:1127:67
	ldp	x29, x30, [sp, #16]             // 16-byte Folded Reload
	add	sp, sp, #32
	ret
.Ltmp112:
.Lfunc_end35:
	.size	_ZNSt8__detail21_Hashtable_ebo_helperILi0ESaINS_10_Hash_nodeISt4pairIKmN3org9blobstore15BlobstoreClient4impl4BlobEELb0EEEELb1EEC2Ev, .Lfunc_end35-_ZNSt8__detail21_Hashtable_ebo_helperILi0ESaINS_10_Hash_nodeISt4pairIKmN3org9blobstore15BlobstoreClient4impl4BlobEELb0EEEELb1EEC2Ev
	.cfi_endproc
                                        // -- End function
	.section	.text._ZNSaINSt8__detail10_Hash_nodeISt4pairIKmN3org9blobstore15BlobstoreClient4impl4BlobEELb0EEEEC2Ev,"axG",@progbits,_ZNSaINSt8__detail10_Hash_nodeISt4pairIKmN3org9blobstore15BlobstoreClient4impl4BlobEELb0EEEEC2Ev,comdat
	.weak	_ZNSaINSt8__detail10_Hash_nodeISt4pairIKmN3org9blobstore15BlobstoreClient4impl4BlobEELb0EEEEC2Ev // -- Begin function _ZNSaINSt8__detail10_Hash_nodeISt4pairIKmN3org9blobstore15BlobstoreClient4impl4BlobEELb0EEEEC2Ev
	.p2align	2
	.type	_ZNSaINSt8__detail10_Hash_nodeISt4pairIKmN3org9blobstore15BlobstoreClient4impl4BlobEELb0EEEEC2Ev,@function
_ZNSaINSt8__detail10_Hash_nodeISt4pairIKmN3org9blobstore15BlobstoreClient4impl4BlobEELb0EEEEC2Ev: // @_ZNSaINSt8__detail10_Hash_nodeISt4pairIKmN3org9blobstore15BlobstoreClient4impl4BlobEELb0EEEEC2Ev
.Lfunc_begin36:
	.loc	11 156 0 is_stmt 1              // /usr/bin/../lib/gcc/aarch64-linux-gnu/11/../../../../include/c++/11/bits/allocator.h:156:0
	.cfi_startproc
// %bb.0:
	sub	sp, sp, #32
	stp	x29, x30, [sp, #16]             // 16-byte Folded Spill
	add	x29, sp, #16
	.cfi_def_cfa w29, 16
	.cfi_offset w30, -8
	.cfi_offset w29, -16
	str	x0, [sp, #8]
	ldr	x0, [sp, #8]
.Ltmp113:
	.loc	11 156 7 prologue_end           // /usr/bin/../lib/gcc/aarch64-linux-gnu/11/../../../../include/c++/11/bits/allocator.h:156:7
	bl	_ZN9__gnu_cxx13new_allocatorINSt8__detail10_Hash_nodeISt4pairIKmN3org9blobstore15BlobstoreClient4impl4BlobEELb0EEEEC2Ev
	.loc	11 156 30 is_stmt 0             // /usr/bin/../lib/gcc/aarch64-linux-gnu/11/../../../../include/c++/11/bits/allocator.h:156:30
	ldp	x29, x30, [sp, #16]             // 16-byte Folded Reload
	add	sp, sp, #32
	ret
.Ltmp114:
.Lfunc_end36:
	.size	_ZNSaINSt8__detail10_Hash_nodeISt4pairIKmN3org9blobstore15BlobstoreClient4impl4BlobEELb0EEEEC2Ev, .Lfunc_end36-_ZNSaINSt8__detail10_Hash_nodeISt4pairIKmN3org9blobstore15BlobstoreClient4impl4BlobEELb0EEEEC2Ev
	.cfi_endproc
                                        // -- End function
	.section	.text._ZN9__gnu_cxx13new_allocatorINSt8__detail10_Hash_nodeISt4pairIKmN3org9blobstore15BlobstoreClient4impl4BlobEELb0EEEEC2Ev,"axG",@progbits,_ZN9__gnu_cxx13new_allocatorINSt8__detail10_Hash_nodeISt4pairIKmN3org9blobstore15BlobstoreClient4impl4BlobEELb0EEEEC2Ev,comdat
	.weak	_ZN9__gnu_cxx13new_allocatorINSt8__detail10_Hash_nodeISt4pairIKmN3org9blobstore15BlobstoreClient4impl4BlobEELb0EEEEC2Ev // -- Begin function _ZN9__gnu_cxx13new_allocatorINSt8__detail10_Hash_nodeISt4pairIKmN3org9blobstore15BlobstoreClient4impl4BlobEELb0EEEEC2Ev
	.p2align	2
	.type	_ZN9__gnu_cxx13new_allocatorINSt8__detail10_Hash_nodeISt4pairIKmN3org9blobstore15BlobstoreClient4impl4BlobEELb0EEEEC2Ev,@function
_ZN9__gnu_cxx13new_allocatorINSt8__detail10_Hash_nodeISt4pairIKmN3org9blobstore15BlobstoreClient4impl4BlobEELb0EEEEC2Ev: // @_ZN9__gnu_cxx13new_allocatorINSt8__detail10_Hash_nodeISt4pairIKmN3org9blobstore15BlobstoreClient4impl4BlobEELb0EEEEC2Ev
.Lfunc_begin37:
	.loc	9 79 0 is_stmt 1                // /usr/bin/../lib/gcc/aarch64-linux-gnu/11/../../../../include/c++/11/ext/new_allocator.h:79:0
	.cfi_startproc
// %bb.0:
	sub	sp, sp, #16
	.cfi_def_cfa_offset 16
	str	x0, [sp, #8]
.Ltmp116:
	.loc	9 79 34 prologue_end            // /usr/bin/../lib/gcc/aarch64-linux-gnu/11/../../../../include/c++/11/ext/new_allocator.h:79:34
	add	sp, sp, #16
	ret
.Ltmp117:
.Lfunc_end37:
	.size	_ZN9__gnu_cxx13new_allocatorINSt8__detail10_Hash_nodeISt4pairIKmN3org9blobstore15BlobstoreClient4impl4BlobEELb0EEEEC2Ev, .Lfunc_end37-_ZN9__gnu_cxx13new_allocatorINSt8__detail10_Hash_nodeISt4pairIKmN3org9blobstore15BlobstoreClient4impl4BlobEELb0EEEEC2Ev
	.cfi_endproc
                                        // -- End function
	.section	.text._ZNSt10_Hash_impl4hashEPKvmm,"axG",@progbits,_ZNSt10_Hash_impl4hashEPKvmm,comdat
	.weak	_ZNSt10_Hash_impl4hashEPKvmm    // -- Begin function _ZNSt10_Hash_impl4hashEPKvmm
	.p2align	2
	.type	_ZNSt10_Hash_impl4hashEPKvmm,@function
_ZNSt10_Hash_impl4hashEPKvmm:           // @_ZNSt10_Hash_impl4hashEPKvmm
.Lfunc_begin38:
	.loc	16 198 0                        // /usr/bin/../lib/gcc/aarch64-linux-gnu/11/../../../../include/c++/11/bits/functional_hash.h:198:0
	.cfi_startproc
// %bb.0:
	sub	sp, sp, #48
	stp	x29, x30, [sp, #32]             // 16-byte Folded Spill
	add	x29, sp, #32
	.cfi_def_cfa w29, 16
	.cfi_offset w30, -8
	.cfi_offset w29, -16
	stur	x0, [x29, #-8]
	str	x1, [sp, #16]
	str	x2, [sp, #8]
.Ltmp118:
	.loc	16 198 26 prologue_end          // /usr/bin/../lib/gcc/aarch64-linux-gnu/11/../../../../include/c++/11/bits/functional_hash.h:198:26
	ldur	x0, [x29, #-8]
	.loc	16 198 33 is_stmt 0             // /usr/bin/../lib/gcc/aarch64-linux-gnu/11/../../../../include/c++/11/bits/functional_hash.h:198:33
	ldr	x1, [sp, #16]
	.loc	16 198 44                       // /usr/bin/../lib/gcc/aarch64-linux-gnu/11/../../../../include/c++/11/bits/functional_hash.h:198:44
	ldr	x2, [sp, #8]
	.loc	16 198 14                       // /usr/bin/../lib/gcc/aarch64-linux-gnu/11/../../../../include/c++/11/bits/functional_hash.h:198:14
	bl	_ZSt11_Hash_bytesPKvmm
	.loc	16 198 7                        // /usr/bin/../lib/gcc/aarch64-linux-gnu/11/../../../../include/c++/11/bits/functional_hash.h:198:7
	ldp	x29, x30, [sp, #32]             // 16-byte Folded Reload
	add	sp, sp, #48
	ret
.Ltmp119:
.Lfunc_end38:
	.size	_ZNSt10_Hash_impl4hashEPKvmm, .Lfunc_end38-_ZNSt10_Hash_impl4hashEPKvmm
	.cfi_endproc
                                        // -- End function
	.section	.text.__clang_call_terminate,"axG",@progbits,__clang_call_terminate,comdat
	.hidden	__clang_call_terminate          // -- Begin function __clang_call_terminate
	.weak	__clang_call_terminate
	.p2align	2
	.type	__clang_call_terminate,@function
__clang_call_terminate:                 // @__clang_call_terminate
.Lfunc_begin39:
	.cfi_startproc
// %bb.0:
	str	x30, [sp, #-16]!                // 8-byte Folded Spill
	.cfi_def_cfa_offset 16
	.cfi_offset w30, -16
	bl	__cxa_begin_catch
	bl	_ZSt9terminatev
.Lfunc_end39:
	.size	__clang_call_terminate, .Lfunc_end39-__clang_call_terminate
	.cfi_endproc
                                        // -- End function
	.section	.text._ZNSt8_Rb_treeINSt7__cxx1112basic_stringIcSt11char_traitsIcESaIcEEES5_St9_IdentityIS5_ESt4lessIS5_ESaIS5_EEC2Ev,"axG",@progbits,_ZNSt8_Rb_treeINSt7__cxx1112basic_stringIcSt11char_traitsIcESaIcEEES5_St9_IdentityIS5_ESt4lessIS5_ESaIS5_EEC2Ev,comdat
	.weak	_ZNSt8_Rb_treeINSt7__cxx1112basic_stringIcSt11char_traitsIcESaIcEEES5_St9_IdentityIS5_ESt4lessIS5_ESaIS5_EEC2Ev // -- Begin function _ZNSt8_Rb_treeINSt7__cxx1112basic_stringIcSt11char_traitsIcESaIcEEES5_St9_IdentityIS5_ESt4lessIS5_ESaIS5_EEC2Ev
	.p2align	2
	.type	_ZNSt8_Rb_treeINSt7__cxx1112basic_stringIcSt11char_traitsIcESaIcEEES5_St9_IdentityIS5_ESt4lessIS5_ESaIS5_EEC2Ev,@function
_ZNSt8_Rb_treeINSt7__cxx1112basic_stringIcSt11char_traitsIcESaIcEEES5_St9_IdentityIS5_ESt4lessIS5_ESaIS5_EEC2Ev: // @_ZNSt8_Rb_treeINSt7__cxx1112basic_stringIcSt11char_traitsIcESaIcEEES5_St9_IdentityIS5_ESt4lessIS5_ESaIS5_EEC2Ev
.Lfunc_begin40:
	.loc	3 928 0 is_stmt 1               // /usr/bin/../lib/gcc/aarch64-linux-gnu/11/../../../../include/c++/11/bits/stl_tree.h:928:0
	.cfi_startproc
// %bb.0:
	sub	sp, sp, #32
	stp	x29, x30, [sp, #16]             // 16-byte Folded Spill
	add	x29, sp, #16
	.cfi_def_cfa w29, 16
	.cfi_offset w30, -8
	.cfi_offset w29, -16
	str	x0, [sp, #8]
	ldr	x0, [sp, #8]
.Ltmp120:
	.loc	3 928 7 prologue_end            // /usr/bin/../lib/gcc/aarch64-linux-gnu/11/../../../../include/c++/11/bits/stl_tree.h:928:7
	bl	_ZNSt8_Rb_treeINSt7__cxx1112basic_stringIcSt11char_traitsIcESaIcEEES5_St9_IdentityIS5_ESt4lessIS5_ESaIS5_EE13_Rb_tree_implIS9_Lb1EEC2Ev
	.loc	3 928 26 is_stmt 0              // /usr/bin/../lib/gcc/aarch64-linux-gnu/11/../../../../include/c++/11/bits/stl_tree.h:928:26
	ldp	x29, x30, [sp, #16]             // 16-byte Folded Reload
	add	sp, sp, #32
	ret
.Ltmp121:
.Lfunc_end40:
	.size	_ZNSt8_Rb_treeINSt7__cxx1112basic_stringIcSt11char_traitsIcESaIcEEES5_St9_IdentityIS5_ESt4lessIS5_ESaIS5_EEC2Ev, .Lfunc_end40-_ZNSt8_Rb_treeINSt7__cxx1112basic_stringIcSt11char_traitsIcESaIcEEES5_St9_IdentityIS5_ESt4lessIS5_ESaIS5_EEC2Ev
	.cfi_endproc
                                        // -- End function
	.section	.text._ZNSt8_Rb_treeINSt7__cxx1112basic_stringIcSt11char_traitsIcESaIcEEES5_St9_IdentityIS5_ESt4lessIS5_ESaIS5_EE13_Rb_tree_implIS9_Lb1EEC2Ev,"axG",@progbits,_ZNSt8_Rb_treeINSt7__cxx1112basic_stringIcSt11char_traitsIcESaIcEEES5_St9_IdentityIS5_ESt4lessIS5_ESaIS5_EE13_Rb_tree_implIS9_Lb1EEC2Ev,comdat
	.weak	_ZNSt8_Rb_treeINSt7__cxx1112basic_stringIcSt11char_traitsIcESaIcEEES5_St9_IdentityIS5_ESt4lessIS5_ESaIS5_EE13_Rb_tree_implIS9_Lb1EEC2Ev // -- Begin function _ZNSt8_Rb_treeINSt7__cxx1112basic_stringIcSt11char_traitsIcESaIcEEES5_St9_IdentityIS5_ESt4lessIS5_ESaIS5_EE13_Rb_tree_implIS9_Lb1EEC2Ev
	.p2align	2
	.type	_ZNSt8_Rb_treeINSt7__cxx1112basic_stringIcSt11char_traitsIcESaIcEEES5_St9_IdentityIS5_ESt4lessIS5_ESaIS5_EE13_Rb_tree_implIS9_Lb1EEC2Ev,@function
_ZNSt8_Rb_treeINSt7__cxx1112basic_stringIcSt11char_traitsIcESaIcEEES5_St9_IdentityIS5_ESt4lessIS5_ESaIS5_EE13_Rb_tree_implIS9_Lb1EEC2Ev: // @_ZNSt8_Rb_treeINSt7__cxx1112basic_stringIcSt11char_traitsIcESaIcEEES5_St9_IdentityIS5_ESt4lessIS5_ESaIS5_EE13_Rb_tree_implIS9_Lb1EEC2Ev
.Lfunc_begin41:
	.loc	3 672 0 is_stmt 1               // /usr/bin/../lib/gcc/aarch64-linux-gnu/11/../../../../include/c++/11/bits/stl_tree.h:672:0
	.cfi_startproc
// %bb.0:
	sub	sp, sp, #32
	stp	x29, x30, [sp, #16]             // 16-byte Folded Spill
	add	x29, sp, #16
	.cfi_def_cfa w29, 16
	.cfi_offset w30, -8
	.cfi_offset w29, -16
	str	x0, [sp, #8]
	ldr	x0, [sp, #8]
	str	x0, [sp]                        // 8-byte Folded Spill
.Ltmp122:
	.loc	3 671 6 prologue_end            // /usr/bin/../lib/gcc/aarch64-linux-gnu/11/../../../../include/c++/11/bits/stl_tree.h:671:6
	bl	_ZNSaISt13_Rb_tree_nodeINSt7__cxx1112basic_stringIcSt11char_traitsIcESaIcEEEEEC2Ev
	ldr	x0, [sp]                        // 8-byte Folded Reload
	.loc	3 667 4                         // /usr/bin/../lib/gcc/aarch64-linux-gnu/11/../../../../include/c++/11/bits/stl_tree.h:667:4
	bl	_ZNSt20_Rb_tree_key_compareISt4lessINSt7__cxx1112basic_stringIcSt11char_traitsIcESaIcEEEEEC2Ev
	ldr	x8, [sp]                        // 8-byte Folded Reload
	.loc	3 672 4                         // /usr/bin/../lib/gcc/aarch64-linux-gnu/11/../../../../include/c++/11/bits/stl_tree.h:672:4
	add	x0, x8, #8
	.loc	3 667 4                         // /usr/bin/../lib/gcc/aarch64-linux-gnu/11/../../../../include/c++/11/bits/stl_tree.h:667:4
	bl	_ZNSt15_Rb_tree_headerC2Ev
	.loc	3 672 6                         // /usr/bin/../lib/gcc/aarch64-linux-gnu/11/../../../../include/c++/11/bits/stl_tree.h:672:6
	ldp	x29, x30, [sp, #16]             // 16-byte Folded Reload
	add	sp, sp, #32
	ret
.Ltmp123:
.Lfunc_end41:
	.size	_ZNSt8_Rb_treeINSt7__cxx1112basic_stringIcSt11char_traitsIcESaIcEEES5_St9_IdentityIS5_ESt4lessIS5_ESaIS5_EE13_Rb_tree_implIS9_Lb1EEC2Ev, .Lfunc_end41-_ZNSt8_Rb_treeINSt7__cxx1112basic_stringIcSt11char_traitsIcESaIcEEES5_St9_IdentityIS5_ESt4lessIS5_ESaIS5_EE13_Rb_tree_implIS9_Lb1EEC2Ev
	.cfi_endproc
                                        // -- End function
	.section	.text._ZNSaISt13_Rb_tree_nodeINSt7__cxx1112basic_stringIcSt11char_traitsIcESaIcEEEEEC2Ev,"axG",@progbits,_ZNSaISt13_Rb_tree_nodeINSt7__cxx1112basic_stringIcSt11char_traitsIcESaIcEEEEEC2Ev,comdat
	.weak	_ZNSaISt13_Rb_tree_nodeINSt7__cxx1112basic_stringIcSt11char_traitsIcESaIcEEEEEC2Ev // -- Begin function _ZNSaISt13_Rb_tree_nodeINSt7__cxx1112basic_stringIcSt11char_traitsIcESaIcEEEEEC2Ev
	.p2align	2
	.type	_ZNSaISt13_Rb_tree_nodeINSt7__cxx1112basic_stringIcSt11char_traitsIcESaIcEEEEEC2Ev,@function
_ZNSaISt13_Rb_tree_nodeINSt7__cxx1112basic_stringIcSt11char_traitsIcESaIcEEEEEC2Ev: // @_ZNSaISt13_Rb_tree_nodeINSt7__cxx1112basic_stringIcSt11char_traitsIcESaIcEEEEEC2Ev
.Lfunc_begin42:
	.loc	11 156 0                        // /usr/bin/../lib/gcc/aarch64-linux-gnu/11/../../../../include/c++/11/bits/allocator.h:156:0
	.cfi_startproc
// %bb.0:
	sub	sp, sp, #32
	stp	x29, x30, [sp, #16]             // 16-byte Folded Spill
	add	x29, sp, #16
	.cfi_def_cfa w29, 16
	.cfi_offset w30, -8
	.cfi_offset w29, -16
	str	x0, [sp, #8]
	ldr	x0, [sp, #8]
.Ltmp124:
	.loc	11 156 7 prologue_end           // /usr/bin/../lib/gcc/aarch64-linux-gnu/11/../../../../include/c++/11/bits/allocator.h:156:7
	bl	_ZN9__gnu_cxx13new_allocatorISt13_Rb_tree_nodeINSt7__cxx1112basic_stringIcSt11char_traitsIcESaIcEEEEEC2Ev
	.loc	11 156 30 is_stmt 0             // /usr/bin/../lib/gcc/aarch64-linux-gnu/11/../../../../include/c++/11/bits/allocator.h:156:30
	ldp	x29, x30, [sp, #16]             // 16-byte Folded Reload
	add	sp, sp, #32
	ret
.Ltmp125:
.Lfunc_end42:
	.size	_ZNSaISt13_Rb_tree_nodeINSt7__cxx1112basic_stringIcSt11char_traitsIcESaIcEEEEEC2Ev, .Lfunc_end42-_ZNSaISt13_Rb_tree_nodeINSt7__cxx1112basic_stringIcSt11char_traitsIcESaIcEEEEEC2Ev
	.cfi_endproc
                                        // -- End function
	.section	.text._ZNSt20_Rb_tree_key_compareISt4lessINSt7__cxx1112basic_stringIcSt11char_traitsIcESaIcEEEEEC2Ev,"axG",@progbits,_ZNSt20_Rb_tree_key_compareISt4lessINSt7__cxx1112basic_stringIcSt11char_traitsIcESaIcEEEEEC2Ev,comdat
	.weak	_ZNSt20_Rb_tree_key_compareISt4lessINSt7__cxx1112basic_stringIcSt11char_traitsIcESaIcEEEEEC2Ev // -- Begin function _ZNSt20_Rb_tree_key_compareISt4lessINSt7__cxx1112basic_stringIcSt11char_traitsIcESaIcEEEEEC2Ev
	.p2align	2
	.type	_ZNSt20_Rb_tree_key_compareISt4lessINSt7__cxx1112basic_stringIcSt11char_traitsIcESaIcEEEEEC2Ev,@function
_ZNSt20_Rb_tree_key_compareISt4lessINSt7__cxx1112basic_stringIcSt11char_traitsIcESaIcEEEEEC2Ev: // @_ZNSt20_Rb_tree_key_compareISt4lessINSt7__cxx1112basic_stringIcSt11char_traitsIcESaIcEEEEEC2Ev
.Lfunc_begin43:
	.loc	3 150 0 is_stmt 1               // /usr/bin/../lib/gcc/aarch64-linux-gnu/11/../../../../include/c++/11/bits/stl_tree.h:150:0
	.cfi_startproc
// %bb.0:
	sub	sp, sp, #16
	.cfi_def_cfa_offset 16
	str	x0, [sp, #8]
.Ltmp127:
	.loc	3 150 9 prologue_end            // /usr/bin/../lib/gcc/aarch64-linux-gnu/11/../../../../include/c++/11/bits/stl_tree.h:150:9
	add	sp, sp, #16
	ret
.Ltmp128:
.Lfunc_end43:
	.size	_ZNSt20_Rb_tree_key_compareISt4lessINSt7__cxx1112basic_stringIcSt11char_traitsIcESaIcEEEEEC2Ev, .Lfunc_end43-_ZNSt20_Rb_tree_key_compareISt4lessINSt7__cxx1112basic_stringIcSt11char_traitsIcESaIcEEEEEC2Ev
	.cfi_endproc
                                        // -- End function
	.section	.text._ZNSt15_Rb_tree_headerC2Ev,"axG",@progbits,_ZNSt15_Rb_tree_headerC2Ev,comdat
	.weak	_ZNSt15_Rb_tree_headerC2Ev      // -- Begin function _ZNSt15_Rb_tree_headerC2Ev
	.p2align	2
	.type	_ZNSt15_Rb_tree_headerC2Ev,@function
_ZNSt15_Rb_tree_headerC2Ev:             // @_ZNSt15_Rb_tree_headerC2Ev
.Lfunc_begin44:
	.loc	3 174 0                         // /usr/bin/../lib/gcc/aarch64-linux-gnu/11/../../../../include/c++/11/bits/stl_tree.h:174:0
	.cfi_startproc
	.cfi_personality 156, DW.ref.__gxx_personality_v0
	.cfi_lsda 28, .Lexception4
// %bb.0:
	sub	sp, sp, #32
	stp	x29, x30, [sp, #16]             // 16-byte Folded Spill
	add	x29, sp, #16
	.cfi_def_cfa w29, 16
	.cfi_offset w30, -8
	.cfi_offset w29, -16
	str	x0, [sp, #8]
	ldr	x0, [sp, #8]
.Ltmp132:
	.loc	3 175 26 prologue_end           // /usr/bin/../lib/gcc/aarch64-linux-gnu/11/../../../../include/c++/11/bits/stl_tree.h:175:26
	str	wzr, [x0]
.Ltmp129:
	.loc	3 176 7                         // /usr/bin/../lib/gcc/aarch64-linux-gnu/11/../../../../include/c++/11/bits/stl_tree.h:176:7
	bl	_ZNSt15_Rb_tree_header8_M_resetEv
.Ltmp130:
	b	.LBB44_1
.Ltmp133:
.LBB44_1:
	.loc	3 177 5                         // /usr/bin/../lib/gcc/aarch64-linux-gnu/11/../../../../include/c++/11/bits/stl_tree.h:177:5
	ldp	x29, x30, [sp, #16]             // 16-byte Folded Reload
	add	sp, sp, #32
	ret
.LBB44_2:
.Ltmp131:
.Ltmp134:
	.loc	3 176 7                         // /usr/bin/../lib/gcc/aarch64-linux-gnu/11/../../../../include/c++/11/bits/stl_tree.h:176:7
	bl	__clang_call_terminate
.Ltmp135:
.Lfunc_end44:
	.size	_ZNSt15_Rb_tree_headerC2Ev, .Lfunc_end44-_ZNSt15_Rb_tree_headerC2Ev
	.cfi_endproc
	.section	.gcc_except_table._ZNSt15_Rb_tree_headerC2Ev,"aG",@progbits,_ZNSt15_Rb_tree_headerC2Ev,comdat
	.p2align	2
GCC_except_table44:
.Lexception4:
	.byte	255                             // @LPStart Encoding = omit
	.byte	156                             // @TType Encoding = indirect pcrel sdata8
	.uleb128 .Lttbase1-.Lttbaseref1
.Lttbaseref1:
	.byte	1                               // Call site Encoding = uleb128
	.uleb128 .Lcst_end4-.Lcst_begin4
.Lcst_begin4:
	.uleb128 .Ltmp129-.Lfunc_begin44        // >> Call Site 1 <<
	.uleb128 .Ltmp130-.Ltmp129              //   Call between .Ltmp129 and .Ltmp130
	.uleb128 .Ltmp131-.Lfunc_begin44        //     jumps to .Ltmp131
	.byte	1                               //   On action: 1
.Lcst_end4:
	.byte	1                               // >> Action Record 1 <<
                                        //   Catch TypeInfo 1
	.byte	0                               //   No further actions
	.p2align	2
                                        // >> Catch TypeInfos <<
	.xword	0                               // TypeInfo 1
.Lttbase1:
	.p2align	2
                                        // -- End function
	.section	.text._ZN9__gnu_cxx13new_allocatorISt13_Rb_tree_nodeINSt7__cxx1112basic_stringIcSt11char_traitsIcESaIcEEEEEC2Ev,"axG",@progbits,_ZN9__gnu_cxx13new_allocatorISt13_Rb_tree_nodeINSt7__cxx1112basic_stringIcSt11char_traitsIcESaIcEEEEEC2Ev,comdat
	.weak	_ZN9__gnu_cxx13new_allocatorISt13_Rb_tree_nodeINSt7__cxx1112basic_stringIcSt11char_traitsIcESaIcEEEEEC2Ev // -- Begin function _ZN9__gnu_cxx13new_allocatorISt13_Rb_tree_nodeINSt7__cxx1112basic_stringIcSt11char_traitsIcESaIcEEEEEC2Ev
	.p2align	2
	.type	_ZN9__gnu_cxx13new_allocatorISt13_Rb_tree_nodeINSt7__cxx1112basic_stringIcSt11char_traitsIcESaIcEEEEEC2Ev,@function
_ZN9__gnu_cxx13new_allocatorISt13_Rb_tree_nodeINSt7__cxx1112basic_stringIcSt11char_traitsIcESaIcEEEEEC2Ev: // @_ZN9__gnu_cxx13new_allocatorISt13_Rb_tree_nodeINSt7__cxx1112basic_stringIcSt11char_traitsIcESaIcEEEEEC2Ev
.Lfunc_begin45:
	.loc	9 79 0                          // /usr/bin/../lib/gcc/aarch64-linux-gnu/11/../../../../include/c++/11/ext/new_allocator.h:79:0
	.cfi_startproc
// %bb.0:
	sub	sp, sp, #16
	.cfi_def_cfa_offset 16
	str	x0, [sp, #8]
.Ltmp137:
	.loc	9 79 34 prologue_end            // /usr/bin/../lib/gcc/aarch64-linux-gnu/11/../../../../include/c++/11/ext/new_allocator.h:79:34
	add	sp, sp, #16
	ret
.Ltmp138:
.Lfunc_end45:
	.size	_ZN9__gnu_cxx13new_allocatorISt13_Rb_tree_nodeINSt7__cxx1112basic_stringIcSt11char_traitsIcESaIcEEEEEC2Ev, .Lfunc_end45-_ZN9__gnu_cxx13new_allocatorISt13_Rb_tree_nodeINSt7__cxx1112basic_stringIcSt11char_traitsIcESaIcEEEEEC2Ev
	.cfi_endproc
                                        // -- End function
	.section	.text._ZNSt15_Rb_tree_header8_M_resetEv,"axG",@progbits,_ZNSt15_Rb_tree_header8_M_resetEv,comdat
	.weak	_ZNSt15_Rb_tree_header8_M_resetEv // -- Begin function _ZNSt15_Rb_tree_header8_M_resetEv
	.p2align	2
	.type	_ZNSt15_Rb_tree_header8_M_resetEv,@function
_ZNSt15_Rb_tree_header8_M_resetEv:      // @_ZNSt15_Rb_tree_header8_M_resetEv
.Lfunc_begin46:
	.loc	3 207 0                         // /usr/bin/../lib/gcc/aarch64-linux-gnu/11/../../../../include/c++/11/bits/stl_tree.h:207:0
	.cfi_startproc
// %bb.0:
	sub	sp, sp, #16
	.cfi_def_cfa_offset 16
	str	x0, [sp, #8]
	ldr	x8, [sp, #8]
                                        // kill: def $x9 killed $xzr
.Ltmp140:
	.loc	3 208 27 prologue_end           // /usr/bin/../lib/gcc/aarch64-linux-gnu/11/../../../../include/c++/11/bits/stl_tree.h:208:27
	str	xzr, [x8, #8]
	.loc	3 209 25                        // /usr/bin/../lib/gcc/aarch64-linux-gnu/11/../../../../include/c++/11/bits/stl_tree.h:209:25
	mov	x9, x8
	str	x9, [x8, #16]
	.loc	3 210 26                        // /usr/bin/../lib/gcc/aarch64-linux-gnu/11/../../../../include/c++/11/bits/stl_tree.h:210:26
	mov	x9, x8
	str	x9, [x8, #24]
	.loc	3 211 21                        // /usr/bin/../lib/gcc/aarch64-linux-gnu/11/../../../../include/c++/11/bits/stl_tree.h:211:21
	str	xzr, [x8, #32]
	.loc	3 212 5                         // /usr/bin/../lib/gcc/aarch64-linux-gnu/11/../../../../include/c++/11/bits/stl_tree.h:212:5
	add	sp, sp, #16
	ret
.Ltmp141:
.Lfunc_end46:
	.size	_ZNSt15_Rb_tree_header8_M_resetEv, .Lfunc_end46-_ZNSt15_Rb_tree_header8_M_resetEv
	.cfi_endproc
                                        // -- End function
	.section	.text._ZNSt3setINSt7__cxx1112basic_stringIcSt11char_traitsIcESaIcEEESt4lessIS5_ESaIS5_EEaSEOS9_,"axG",@progbits,_ZNSt3setINSt7__cxx1112basic_stringIcSt11char_traitsIcESaIcEEESt4lessIS5_ESaIS5_EEaSEOS9_,comdat
	.weak	_ZNSt3setINSt7__cxx1112basic_stringIcSt11char_traitsIcESaIcEEESt4lessIS5_ESaIS5_EEaSEOS9_ // -- Begin function _ZNSt3setINSt7__cxx1112basic_stringIcSt11char_traitsIcESaIcEEESt4lessIS5_ESaIS5_EEaSEOS9_
	.p2align	2
	.type	_ZNSt3setINSt7__cxx1112basic_stringIcSt11char_traitsIcESaIcEEESt4lessIS5_ESaIS5_EEaSEOS9_,@function
_ZNSt3setINSt7__cxx1112basic_stringIcSt11char_traitsIcESaIcEEESt4lessIS5_ESaIS5_EEaSEOS9_: // @_ZNSt3setINSt7__cxx1112basic_stringIcSt11char_traitsIcESaIcEEESt4lessIS5_ESaIS5_EEaSEOS9_
.Lfunc_begin47:
	.loc	15 302 0                        // /usr/bin/../lib/gcc/aarch64-linux-gnu/11/../../../../include/c++/11/bits/stl_set.h:302:0
	.cfi_startproc
// %bb.0:
	sub	sp, sp, #48
	stp	x29, x30, [sp, #32]             // 16-byte Folded Spill
	add	x29, sp, #32
	.cfi_def_cfa w29, 16
	.cfi_offset w30, -8
	.cfi_offset w29, -16
	stur	x0, [x29, #-8]
	str	x1, [sp, #16]
	ldur	x0, [x29, #-8]
	str	x0, [sp, #8]                    // 8-byte Folded Spill
.Ltmp142:
	.loc	15 302 32 prologue_end          // /usr/bin/../lib/gcc/aarch64-linux-gnu/11/../../../../include/c++/11/bits/stl_set.h:302:32
	ldr	x1, [sp, #16]
	bl	_ZNSt8_Rb_treeINSt7__cxx1112basic_stringIcSt11char_traitsIcESaIcEEES5_St9_IdentityIS5_ESt4lessIS5_ESaIS5_EEaSEOSB_
	ldr	x0, [sp, #8]                    // 8-byte Folded Reload
	ldp	x29, x30, [sp, #32]             // 16-byte Folded Reload
	add	sp, sp, #48
	ret
.Ltmp143:
.Lfunc_end47:
	.size	_ZNSt3setINSt7__cxx1112basic_stringIcSt11char_traitsIcESaIcEEESt4lessIS5_ESaIS5_EEaSEOS9_, .Lfunc_end47-_ZNSt3setINSt7__cxx1112basic_stringIcSt11char_traitsIcESaIcEEESt4lessIS5_ESaIS5_EEaSEOS9_
	.cfi_endproc
                                        // -- End function
	.section	.text._ZNSt8_Rb_treeINSt7__cxx1112basic_stringIcSt11char_traitsIcESaIcEEES5_St9_IdentityIS5_ESt4lessIS5_ESaIS5_EEaSEOSB_,"axG",@progbits,_ZNSt8_Rb_treeINSt7__cxx1112basic_stringIcSt11char_traitsIcESaIcEEES5_St9_IdentityIS5_ESt4lessIS5_ESaIS5_EEaSEOSB_,comdat
	.weak	_ZNSt8_Rb_treeINSt7__cxx1112basic_stringIcSt11char_traitsIcESaIcEEES5_St9_IdentityIS5_ESt4lessIS5_ESaIS5_EEaSEOSB_ // -- Begin function _ZNSt8_Rb_treeINSt7__cxx1112basic_stringIcSt11char_traitsIcESaIcEEES5_St9_IdentityIS5_ESt4lessIS5_ESaIS5_EEaSEOSB_
	.p2align	2
	.type	_ZNSt8_Rb_treeINSt7__cxx1112basic_stringIcSt11char_traitsIcESaIcEEES5_St9_IdentityIS5_ESt4lessIS5_ESaIS5_EEaSEOSB_,@function
_ZNSt8_Rb_treeINSt7__cxx1112basic_stringIcSt11char_traitsIcESaIcEEES5_St9_IdentityIS5_ESt4lessIS5_ESaIS5_EEaSEOSB_: // @_ZNSt8_Rb_treeINSt7__cxx1112basic_stringIcSt11char_traitsIcESaIcEEES5_St9_IdentityIS5_ESt4lessIS5_ESaIS5_EEaSEOSB_
.Lfunc_begin48:
	.loc	3 1695 0                        // /usr/bin/../lib/gcc/aarch64-linux-gnu/11/../../../../include/c++/11/bits/stl_tree.h:1695:0
	.cfi_startproc
	.cfi_personality 156, DW.ref.__gxx_personality_v0
	.cfi_lsda 28, .Lexception5
// %bb.0:
	sub	sp, sp, #48
	stp	x29, x30, [sp, #32]             // 16-byte Folded Spill
	add	x29, sp, #32
	.cfi_def_cfa w29, 16
	.cfi_offset w30, -8
	.cfi_offset w29, -16
	stur	x0, [x29, #-8]
	str	x1, [sp, #16]
	ldur	x8, [x29, #-8]
	str	x8, [sp]                        // 8-byte Folded Spill
.Ltmp147:
	.loc	3 1696 42 prologue_end          // /usr/bin/../lib/gcc/aarch64-linux-gnu/11/../../../../include/c++/11/bits/stl_tree.h:1696:42
	ldr	x0, [sp, #16]
	.loc	3 1696 32 is_stmt 0             // /usr/bin/../lib/gcc/aarch64-linux-gnu/11/../../../../include/c++/11/bits/stl_tree.h:1696:32
	bl	_ZSt4moveIRSt4lessINSt7__cxx1112basic_stringIcSt11char_traitsIcESaIcEEEEEONSt16remove_referenceIT_E4typeEOSA_
	ldr	x0, [sp]                        // 8-byte Folded Reload
	.loc	3 1697 22 is_stmt 1             // /usr/bin/../lib/gcc/aarch64-linux-gnu/11/../../../../include/c++/11/bits/stl_tree.h:1697:22
	ldr	x1, [sp, #16]
	.loc	3 1697 7 is_stmt 0              // /usr/bin/../lib/gcc/aarch64-linux-gnu/11/../../../../include/c++/11/bits/stl_tree.h:1697:7
	ldrb	w2, [sp, #15]
.Ltmp144:
	bl	_ZNSt8_Rb_treeINSt7__cxx1112basic_stringIcSt11char_traitsIcESaIcEEES5_St9_IdentityIS5_ESt4lessIS5_ESaIS5_EE14_M_move_assignERSB_St17integral_constantIbLb1EE
.Ltmp145:
	b	.LBB48_1
.LBB48_1:
	.loc	3 0 7                           // /usr/bin/../lib/gcc/aarch64-linux-gnu/11/../../../../include/c++/11/bits/stl_tree.h:0:7
	ldr	x0, [sp]                        // 8-byte Folded Reload
	.loc	3 1698 7 is_stmt 1              // /usr/bin/../lib/gcc/aarch64-linux-gnu/11/../../../../include/c++/11/bits/stl_tree.h:1698:7
	ldp	x29, x30, [sp, #32]             // 16-byte Folded Reload
	add	sp, sp, #48
	ret
.LBB48_2:
.Ltmp146:
	.loc	3 1697 7                        // /usr/bin/../lib/gcc/aarch64-linux-gnu/11/../../../../include/c++/11/bits/stl_tree.h:1697:7
	bl	__clang_call_terminate
.Ltmp148:
.Lfunc_end48:
	.size	_ZNSt8_Rb_treeINSt7__cxx1112basic_stringIcSt11char_traitsIcESaIcEEES5_St9_IdentityIS5_ESt4lessIS5_ESaIS5_EEaSEOSB_, .Lfunc_end48-_ZNSt8_Rb_treeINSt7__cxx1112basic_stringIcSt11char_traitsIcESaIcEEES5_St9_IdentityIS5_ESt4lessIS5_ESaIS5_EEaSEOSB_
	.cfi_endproc
	.section	.gcc_except_table._ZNSt8_Rb_treeINSt7__cxx1112basic_stringIcSt11char_traitsIcESaIcEEES5_St9_IdentityIS5_ESt4lessIS5_ESaIS5_EEaSEOSB_,"aG",@progbits,_ZNSt8_Rb_treeINSt7__cxx1112basic_stringIcSt11char_traitsIcESaIcEEES5_St9_IdentityIS5_ESt4lessIS5_ESaIS5_EEaSEOSB_,comdat
	.p2align	2
GCC_except_table48:
.Lexception5:
	.byte	255                             // @LPStart Encoding = omit
	.byte	156                             // @TType Encoding = indirect pcrel sdata8
	.uleb128 .Lttbase2-.Lttbaseref2
.Lttbaseref2:
	.byte	1                               // Call site Encoding = uleb128
	.uleb128 .Lcst_end5-.Lcst_begin5
.Lcst_begin5:
	.uleb128 .Ltmp144-.Lfunc_begin48        // >> Call Site 1 <<
	.uleb128 .Ltmp145-.Ltmp144              //   Call between .Ltmp144 and .Ltmp145
	.uleb128 .Ltmp146-.Lfunc_begin48        //     jumps to .Ltmp146
	.byte	1                               //   On action: 1
.Lcst_end5:
	.byte	1                               // >> Action Record 1 <<
                                        //   Catch TypeInfo 1
	.byte	0                               //   No further actions
	.p2align	2
                                        // >> Catch TypeInfos <<
	.xword	0                               // TypeInfo 1
.Lttbase2:
	.p2align	2
                                        // -- End function
	.section	.text._ZSt4moveIRSt4lessINSt7__cxx1112basic_stringIcSt11char_traitsIcESaIcEEEEEONSt16remove_referenceIT_E4typeEOSA_,"axG",@progbits,_ZSt4moveIRSt4lessINSt7__cxx1112basic_stringIcSt11char_traitsIcESaIcEEEEEONSt16remove_referenceIT_E4typeEOSA_,comdat
	.weak	_ZSt4moveIRSt4lessINSt7__cxx1112basic_stringIcSt11char_traitsIcESaIcEEEEEONSt16remove_referenceIT_E4typeEOSA_ // -- Begin function _ZSt4moveIRSt4lessINSt7__cxx1112basic_stringIcSt11char_traitsIcESaIcEEEEEONSt16remove_referenceIT_E4typeEOSA_
	.p2align	2
	.type	_ZSt4moveIRSt4lessINSt7__cxx1112basic_stringIcSt11char_traitsIcESaIcEEEEEONSt16remove_referenceIT_E4typeEOSA_,@function
_ZSt4moveIRSt4lessINSt7__cxx1112basic_stringIcSt11char_traitsIcESaIcEEEEEONSt16remove_referenceIT_E4typeEOSA_: // @_ZSt4moveIRSt4lessINSt7__cxx1112basic_stringIcSt11char_traitsIcESaIcEEEEEONSt16remove_referenceIT_E4typeEOSA_
.Lfunc_begin49:
	.loc	61 105 0                        // /usr/bin/../lib/gcc/aarch64-linux-gnu/11/../../../../include/c++/11/bits/move.h:105:0
	.cfi_startproc
// %bb.0:
	sub	sp, sp, #16
	.cfi_def_cfa_offset 16
	str	x0, [sp, #8]
.Ltmp150:
	.loc	61 105 71 prologue_end          // /usr/bin/../lib/gcc/aarch64-linux-gnu/11/../../../../include/c++/11/bits/move.h:105:71
	ldr	x0, [sp, #8]
	.loc	61 105 7 is_stmt 0              // /usr/bin/../lib/gcc/aarch64-linux-gnu/11/../../../../include/c++/11/bits/move.h:105:7
	add	sp, sp, #16
	ret
.Ltmp151:
.Lfunc_end49:
	.size	_ZSt4moveIRSt4lessINSt7__cxx1112basic_stringIcSt11char_traitsIcESaIcEEEEEONSt16remove_referenceIT_E4typeEOSA_, .Lfunc_end49-_ZSt4moveIRSt4lessINSt7__cxx1112basic_stringIcSt11char_traitsIcESaIcEEEEEONSt16remove_referenceIT_E4typeEOSA_
	.cfi_endproc
                                        // -- End function
	.section	.text._ZNSt8_Rb_treeINSt7__cxx1112basic_stringIcSt11char_traitsIcESaIcEEES5_St9_IdentityIS5_ESt4lessIS5_ESaIS5_EE14_M_move_assignERSB_St17integral_constantIbLb1EE,"axG",@progbits,_ZNSt8_Rb_treeINSt7__cxx1112basic_stringIcSt11char_traitsIcESaIcEEES5_St9_IdentityIS5_ESt4lessIS5_ESaIS5_EE14_M_move_assignERSB_St17integral_constantIbLb1EE,comdat
	.weak	_ZNSt8_Rb_treeINSt7__cxx1112basic_stringIcSt11char_traitsIcESaIcEEES5_St9_IdentityIS5_ESt4lessIS5_ESaIS5_EE14_M_move_assignERSB_St17integral_constantIbLb1EE // -- Begin function _ZNSt8_Rb_treeINSt7__cxx1112basic_stringIcSt11char_traitsIcESaIcEEES5_St9_IdentityIS5_ESt4lessIS5_ESaIS5_EE14_M_move_assignERSB_St17integral_constantIbLb1EE
	.p2align	2
	.type	_ZNSt8_Rb_treeINSt7__cxx1112basic_stringIcSt11char_traitsIcESaIcEEES5_St9_IdentityIS5_ESt4lessIS5_ESaIS5_EE14_M_move_assignERSB_St17integral_constantIbLb1EE,@function
_ZNSt8_Rb_treeINSt7__cxx1112basic_stringIcSt11char_traitsIcESaIcEEES5_St9_IdentityIS5_ESt4lessIS5_ESaIS5_EE14_M_move_assignERSB_St17integral_constantIbLb1EE: // @_ZNSt8_Rb_treeINSt7__cxx1112basic_stringIcSt11char_traitsIcESaIcEEES5_St9_IdentityIS5_ESt4lessIS5_ESaIS5_EE14_M_move_assignERSB_St17integral_constantIbLb1EE
.Lfunc_begin50:
	.loc	3 1660 0 is_stmt 1              // /usr/bin/../lib/gcc/aarch64-linux-gnu/11/../../../../include/c++/11/bits/stl_tree.h:1660:0
	.cfi_startproc
// %bb.0:
	sub	sp, sp, #64
	stp	x29, x30, [sp, #48]             // 16-byte Folded Spill
	add	x29, sp, #48
	.cfi_def_cfa w29, 16
	.cfi_offset w30, -8
	.cfi_offset w29, -16
	sturb	w2, [x29, #-1]
	stur	x0, [x29, #-16]
	str	x1, [sp, #24]
	ldur	x0, [x29, #-16]
	str	x0, [sp, #8]                    // 8-byte Folded Spill
.Ltmp152:
	.loc	3 1661 7 prologue_end           // /usr/bin/../lib/gcc/aarch64-linux-gnu/11/../../../../include/c++/11/bits/stl_tree.h:1661:7
	bl	_ZNSt8_Rb_treeINSt7__cxx1112basic_stringIcSt11char_traitsIcESaIcEEES5_St9_IdentityIS5_ESt4lessIS5_ESaIS5_EE5clearEv
.Ltmp153:
	.loc	3 1662 11                       // /usr/bin/../lib/gcc/aarch64-linux-gnu/11/../../../../include/c++/11/bits/stl_tree.h:1662:11
	ldr	x0, [sp, #24]
	.loc	3 1662 15 is_stmt 0             // /usr/bin/../lib/gcc/aarch64-linux-gnu/11/../../../../include/c++/11/bits/stl_tree.h:1662:15
	bl	_ZNSt8_Rb_treeINSt7__cxx1112basic_stringIcSt11char_traitsIcESaIcEEES5_St9_IdentityIS5_ESt4lessIS5_ESaIS5_EE7_M_rootEv
	ldr	x8, [x0]
.Ltmp154:
	.loc	3 1662 11                       // /usr/bin/../lib/gcc/aarch64-linux-gnu/11/../../../../include/c++/11/bits/stl_tree.h:1662:11
	cbz	x8, .LBB50_2
	b	.LBB50_1
.LBB50_1:
	.loc	3 0 11                          // /usr/bin/../lib/gcc/aarch64-linux-gnu/11/../../../../include/c++/11/bits/stl_tree.h:0:11
	ldr	x0, [sp, #8]                    // 8-byte Folded Reload
.Ltmp155:
	.loc	3 1663 15 is_stmt 1             // /usr/bin/../lib/gcc/aarch64-linux-gnu/11/../../../../include/c++/11/bits/stl_tree.h:1663:15
	ldr	x1, [sp, #24]
	.loc	3 1663 2 is_stmt 0              // /usr/bin/../lib/gcc/aarch64-linux-gnu/11/../../../../include/c++/11/bits/stl_tree.h:1663:2
	ldrb	w2, [sp, #23]
	bl	_ZNSt8_Rb_treeINSt7__cxx1112basic_stringIcSt11char_traitsIcESaIcEEES5_St9_IdentityIS5_ESt4lessIS5_ESaIS5_EE12_M_move_dataERSB_St17integral_constantIbLb1EE
	b	.LBB50_2
.Ltmp156:
.LBB50_2:
	.loc	3 0 2                           // /usr/bin/../lib/gcc/aarch64-linux-gnu/11/../../../../include/c++/11/bits/stl_tree.h:0:2
	ldr	x0, [sp, #8]                    // 8-byte Folded Reload
	.loc	3 1664 28 is_stmt 1             // /usr/bin/../lib/gcc/aarch64-linux-gnu/11/../../../../include/c++/11/bits/stl_tree.h:1664:28
	bl	_ZNSt8_Rb_treeINSt7__cxx1112basic_stringIcSt11char_traitsIcESaIcEEES5_St9_IdentityIS5_ESt4lessIS5_ESaIS5_EE21_M_get_Node_allocatorEv
	str	x0, [sp]                        // 8-byte Folded Spill
	.loc	3 1665 7                        // /usr/bin/../lib/gcc/aarch64-linux-gnu/11/../../../../include/c++/11/bits/stl_tree.h:1665:7
	ldr	x0, [sp, #24]
	.loc	3 1665 11 is_stmt 0             // /usr/bin/../lib/gcc/aarch64-linux-gnu/11/../../../../include/c++/11/bits/stl_tree.h:1665:11
	bl	_ZNSt8_Rb_treeINSt7__cxx1112basic_stringIcSt11char_traitsIcESaIcEEES5_St9_IdentityIS5_ESt4lessIS5_ESaIS5_EE21_M_get_Node_allocatorEv
	mov	x1, x0
	ldr	x0, [sp]                        // 8-byte Folded Reload
	.loc	3 1664 7 is_stmt 1              // /usr/bin/../lib/gcc/aarch64-linux-gnu/11/../../../../include/c++/11/bits/stl_tree.h:1664:7
	bl	_ZSt15__alloc_on_moveISaISt13_Rb_tree_nodeINSt7__cxx1112basic_stringIcSt11char_traitsIcESaIcEEEEEEvRT_SA_
	.loc	3 1666 5                        // /usr/bin/../lib/gcc/aarch64-linux-gnu/11/../../../../include/c++/11/bits/stl_tree.h:1666:5
	ldp	x29, x30, [sp, #48]             // 16-byte Folded Reload
	add	sp, sp, #64
	ret
.Ltmp157:
.Lfunc_end50:
	.size	_ZNSt8_Rb_treeINSt7__cxx1112basic_stringIcSt11char_traitsIcESaIcEEES5_St9_IdentityIS5_ESt4lessIS5_ESaIS5_EE14_M_move_assignERSB_St17integral_constantIbLb1EE, .Lfunc_end50-_ZNSt8_Rb_treeINSt7__cxx1112basic_stringIcSt11char_traitsIcESaIcEEES5_St9_IdentityIS5_ESt4lessIS5_ESaIS5_EE14_M_move_assignERSB_St17integral_constantIbLb1EE
	.cfi_endproc
                                        // -- End function
	.section	.text._ZNSt8_Rb_treeINSt7__cxx1112basic_stringIcSt11char_traitsIcESaIcEEES5_St9_IdentityIS5_ESt4lessIS5_ESaIS5_EE5clearEv,"axG",@progbits,_ZNSt8_Rb_treeINSt7__cxx1112basic_stringIcSt11char_traitsIcESaIcEEES5_St9_IdentityIS5_ESt4lessIS5_ESaIS5_EE5clearEv,comdat
	.weak	_ZNSt8_Rb_treeINSt7__cxx1112basic_stringIcSt11char_traitsIcESaIcEEES5_St9_IdentityIS5_ESt4lessIS5_ESaIS5_EE5clearEv // -- Begin function _ZNSt8_Rb_treeINSt7__cxx1112basic_stringIcSt11char_traitsIcESaIcEEES5_St9_IdentityIS5_ESt4lessIS5_ESaIS5_EE5clearEv
	.p2align	2
	.type	_ZNSt8_Rb_treeINSt7__cxx1112basic_stringIcSt11char_traitsIcESaIcEEES5_St9_IdentityIS5_ESt4lessIS5_ESaIS5_EE5clearEv,@function
_ZNSt8_Rb_treeINSt7__cxx1112basic_stringIcSt11char_traitsIcESaIcEEES5_St9_IdentityIS5_ESt4lessIS5_ESaIS5_EE5clearEv: // @_ZNSt8_Rb_treeINSt7__cxx1112basic_stringIcSt11char_traitsIcESaIcEEES5_St9_IdentityIS5_ESt4lessIS5_ESaIS5_EE5clearEv
.Lfunc_begin51:
	.loc	3 1253 0                        // /usr/bin/../lib/gcc/aarch64-linux-gnu/11/../../../../include/c++/11/bits/stl_tree.h:1253:0
	.cfi_startproc
	.cfi_personality 156, DW.ref.__gxx_personality_v0
	.cfi_lsda 28, .Lexception6
// %bb.0:
	sub	sp, sp, #32
	stp	x29, x30, [sp, #16]             // 16-byte Folded Spill
	add	x29, sp, #16
	.cfi_def_cfa w29, 16
	.cfi_offset w30, -8
	.cfi_offset w29, -16
	str	x0, [sp, #8]
	ldr	x0, [sp, #8]
	str	x0, [sp]                        // 8-byte Folded Spill
.Ltmp161:
	.loc	3 1254 11 prologue_end          // /usr/bin/../lib/gcc/aarch64-linux-gnu/11/../../../../include/c++/11/bits/stl_tree.h:1254:11
	bl	_ZNSt8_Rb_treeINSt7__cxx1112basic_stringIcSt11char_traitsIcESaIcEEES5_St9_IdentityIS5_ESt4lessIS5_ESaIS5_EE8_M_beginEv
	mov	x1, x0
	ldr	x0, [sp]                        // 8-byte Folded Reload
.Ltmp158:
	.loc	3 1254 2 is_stmt 0              // /usr/bin/../lib/gcc/aarch64-linux-gnu/11/../../../../include/c++/11/bits/stl_tree.h:1254:2
	bl	_ZNSt8_Rb_treeINSt7__cxx1112basic_stringIcSt11char_traitsIcESaIcEEES5_St9_IdentityIS5_ESt4lessIS5_ESaIS5_EE8_M_eraseEPSt13_Rb_tree_nodeIS5_E
.Ltmp159:
	b	.LBB51_1
.LBB51_1:
	.loc	3 0 2                           // /usr/bin/../lib/gcc/aarch64-linux-gnu/11/../../../../include/c++/11/bits/stl_tree.h:0:2
	ldr	x8, [sp]                        // 8-byte Folded Reload
	.loc	3 1255 2 is_stmt 1              // /usr/bin/../lib/gcc/aarch64-linux-gnu/11/../../../../include/c++/11/bits/stl_tree.h:1255:2
	add	x0, x8, #8
	.loc	3 1255 10 is_stmt 0             // /usr/bin/../lib/gcc/aarch64-linux-gnu/11/../../../../include/c++/11/bits/stl_tree.h:1255:10
	bl	_ZNSt15_Rb_tree_header8_M_resetEv
	.loc	3 1256 7 is_stmt 1              // /usr/bin/../lib/gcc/aarch64-linux-gnu/11/../../../../include/c++/11/bits/stl_tree.h:1256:7
	ldp	x29, x30, [sp, #16]             // 16-byte Folded Reload
	add	sp, sp, #32
	ret
.LBB51_2:
.Ltmp160:
	.loc	3 1254 2                        // /usr/bin/../lib/gcc/aarch64-linux-gnu/11/../../../../include/c++/11/bits/stl_tree.h:1254:2
	bl	__clang_call_terminate
.Ltmp162:
.Lfunc_end51:
	.size	_ZNSt8_Rb_treeINSt7__cxx1112basic_stringIcSt11char_traitsIcESaIcEEES5_St9_IdentityIS5_ESt4lessIS5_ESaIS5_EE5clearEv, .Lfunc_end51-_ZNSt8_Rb_treeINSt7__cxx1112basic_stringIcSt11char_traitsIcESaIcEEES5_St9_IdentityIS5_ESt4lessIS5_ESaIS5_EE5clearEv
	.cfi_endproc
	.section	.gcc_except_table._ZNSt8_Rb_treeINSt7__cxx1112basic_stringIcSt11char_traitsIcESaIcEEES5_St9_IdentityIS5_ESt4lessIS5_ESaIS5_EE5clearEv,"aG",@progbits,_ZNSt8_Rb_treeINSt7__cxx1112basic_stringIcSt11char_traitsIcESaIcEEES5_St9_IdentityIS5_ESt4lessIS5_ESaIS5_EE5clearEv,comdat
	.p2align	2
GCC_except_table51:
.Lexception6:
	.byte	255                             // @LPStart Encoding = omit
	.byte	156                             // @TType Encoding = indirect pcrel sdata8
	.uleb128 .Lttbase3-.Lttbaseref3
.Lttbaseref3:
	.byte	1                               // Call site Encoding = uleb128
	.uleb128 .Lcst_end6-.Lcst_begin6
.Lcst_begin6:
	.uleb128 .Ltmp158-.Lfunc_begin51        // >> Call Site 1 <<
	.uleb128 .Ltmp159-.Ltmp158              //   Call between .Ltmp158 and .Ltmp159
	.uleb128 .Ltmp160-.Lfunc_begin51        //     jumps to .Ltmp160
	.byte	1                               //   On action: 1
.Lcst_end6:
	.byte	1                               // >> Action Record 1 <<
                                        //   Catch TypeInfo 1
	.byte	0                               //   No further actions
	.p2align	2
                                        // >> Catch TypeInfos <<
	.xword	0                               // TypeInfo 1
.Lttbase3:
	.p2align	2
                                        // -- End function
	.section	.text._ZNSt8_Rb_treeINSt7__cxx1112basic_stringIcSt11char_traitsIcESaIcEEES5_St9_IdentityIS5_ESt4lessIS5_ESaIS5_EE7_M_rootEv,"axG",@progbits,_ZNSt8_Rb_treeINSt7__cxx1112basic_stringIcSt11char_traitsIcESaIcEEES5_St9_IdentityIS5_ESt4lessIS5_ESaIS5_EE7_M_rootEv,comdat
	.weak	_ZNSt8_Rb_treeINSt7__cxx1112basic_stringIcSt11char_traitsIcESaIcEEES5_St9_IdentityIS5_ESt4lessIS5_ESaIS5_EE7_M_rootEv // -- Begin function _ZNSt8_Rb_treeINSt7__cxx1112basic_stringIcSt11char_traitsIcESaIcEEES5_St9_IdentityIS5_ESt4lessIS5_ESaIS5_EE7_M_rootEv
	.p2align	2
	.type	_ZNSt8_Rb_treeINSt7__cxx1112basic_stringIcSt11char_traitsIcESaIcEEES5_St9_IdentityIS5_ESt4lessIS5_ESaIS5_EE7_M_rootEv,@function
_ZNSt8_Rb_treeINSt7__cxx1112basic_stringIcSt11char_traitsIcESaIcEEES5_St9_IdentityIS5_ESt4lessIS5_ESaIS5_EE7_M_rootEv: // @_ZNSt8_Rb_treeINSt7__cxx1112basic_stringIcSt11char_traitsIcESaIcEEES5_St9_IdentityIS5_ESt4lessIS5_ESaIS5_EE7_M_rootEv
.Lfunc_begin52:
	.loc	3 711 0                         // /usr/bin/../lib/gcc/aarch64-linux-gnu/11/../../../../include/c++/11/bits/stl_tree.h:711:0
	.cfi_startproc
// %bb.0:
	sub	sp, sp, #16
	.cfi_def_cfa_offset 16
	str	x0, [sp, #8]
	ldr	x8, [sp, #8]
.Ltmp164:
	.loc	3 711 40 prologue_end           // /usr/bin/../lib/gcc/aarch64-linux-gnu/11/../../../../include/c++/11/bits/stl_tree.h:711:40
	add	x0, x8, #16
	.loc	3 711 9 is_stmt 0               // /usr/bin/../lib/gcc/aarch64-linux-gnu/11/../../../../include/c++/11/bits/stl_tree.h:711:9
	add	sp, sp, #16
	ret
.Ltmp165:
.Lfunc_end52:
	.size	_ZNSt8_Rb_treeINSt7__cxx1112basic_stringIcSt11char_traitsIcESaIcEEES5_St9_IdentityIS5_ESt4lessIS5_ESaIS5_EE7_M_rootEv, .Lfunc_end52-_ZNSt8_Rb_treeINSt7__cxx1112basic_stringIcSt11char_traitsIcESaIcEEES5_St9_IdentityIS5_ESt4lessIS5_ESaIS5_EE7_M_rootEv
	.cfi_endproc
                                        // -- End function
	.section	.text._ZNSt8_Rb_treeINSt7__cxx1112basic_stringIcSt11char_traitsIcESaIcEEES5_St9_IdentityIS5_ESt4lessIS5_ESaIS5_EE12_M_move_dataERSB_St17integral_constantIbLb1EE,"axG",@progbits,_ZNSt8_Rb_treeINSt7__cxx1112basic_stringIcSt11char_traitsIcESaIcEEES5_St9_IdentityIS5_ESt4lessIS5_ESaIS5_EE12_M_move_dataERSB_St17integral_constantIbLb1EE,comdat
	.weak	_ZNSt8_Rb_treeINSt7__cxx1112basic_stringIcSt11char_traitsIcESaIcEEES5_St9_IdentityIS5_ESt4lessIS5_ESaIS5_EE12_M_move_dataERSB_St17integral_constantIbLb1EE // -- Begin function _ZNSt8_Rb_treeINSt7__cxx1112basic_stringIcSt11char_traitsIcESaIcEEES5_St9_IdentityIS5_ESt4lessIS5_ESaIS5_EE12_M_move_dataERSB_St17integral_constantIbLb1EE
	.p2align	2
	.type	_ZNSt8_Rb_treeINSt7__cxx1112basic_stringIcSt11char_traitsIcESaIcEEES5_St9_IdentityIS5_ESt4lessIS5_ESaIS5_EE12_M_move_dataERSB_St17integral_constantIbLb1EE,@function
_ZNSt8_Rb_treeINSt7__cxx1112basic_stringIcSt11char_traitsIcESaIcEEES5_St9_IdentityIS5_ESt4lessIS5_ESaIS5_EE12_M_move_dataERSB_St17integral_constantIbLb1EE: // @_ZNSt8_Rb_treeINSt7__cxx1112basic_stringIcSt11char_traitsIcESaIcEEES5_St9_IdentityIS5_ESt4lessIS5_ESaIS5_EE12_M_move_dataERSB_St17integral_constantIbLb1EE
.Lfunc_begin53:
	.loc	3 1420 0 is_stmt 1              // /usr/bin/../lib/gcc/aarch64-linux-gnu/11/../../../../include/c++/11/bits/stl_tree.h:1420:0
	.cfi_startproc
// %bb.0:
	sub	sp, sp, #48
	stp	x29, x30, [sp, #32]             // 16-byte Folded Spill
	add	x29, sp, #32
	.cfi_def_cfa w29, 16
	.cfi_offset w30, -8
	.cfi_offset w29, -16
	sturb	w2, [x29, #-1]
	str	x0, [sp, #16]
	str	x1, [sp, #8]
	ldr	x8, [sp, #16]
.Ltmp166:
	.loc	3 1420 9 prologue_end           // /usr/bin/../lib/gcc/aarch64-linux-gnu/11/../../../../include/c++/11/bits/stl_tree.h:1420:9
	add	x0, x8, #8
	.loc	3 1420 30 is_stmt 0             // /usr/bin/../lib/gcc/aarch64-linux-gnu/11/../../../../include/c++/11/bits/stl_tree.h:1420:30
	ldr	x8, [sp, #8]
	add	x1, x8, #8
	.loc	3 1420 17                       // /usr/bin/../lib/gcc/aarch64-linux-gnu/11/../../../../include/c++/11/bits/stl_tree.h:1420:17
	bl	_ZNSt15_Rb_tree_header12_M_move_dataERS_
	.loc	3 1420 44                       // /usr/bin/../lib/gcc/aarch64-linux-gnu/11/../../../../include/c++/11/bits/stl_tree.h:1420:44
	ldp	x29, x30, [sp, #32]             // 16-byte Folded Reload
	add	sp, sp, #48
	ret
.Ltmp167:
.Lfunc_end53:
	.size	_ZNSt8_Rb_treeINSt7__cxx1112basic_stringIcSt11char_traitsIcESaIcEEES5_St9_IdentityIS5_ESt4lessIS5_ESaIS5_EE12_M_move_dataERSB_St17integral_constantIbLb1EE, .Lfunc_end53-_ZNSt8_Rb_treeINSt7__cxx1112basic_stringIcSt11char_traitsIcESaIcEEES5_St9_IdentityIS5_ESt4lessIS5_ESaIS5_EE12_M_move_dataERSB_St17integral_constantIbLb1EE
	.cfi_endproc
                                        // -- End function
	.section	.text._ZSt15__alloc_on_moveISaISt13_Rb_tree_nodeINSt7__cxx1112basic_stringIcSt11char_traitsIcESaIcEEEEEEvRT_SA_,"axG",@progbits,_ZSt15__alloc_on_moveISaISt13_Rb_tree_nodeINSt7__cxx1112basic_stringIcSt11char_traitsIcESaIcEEEEEEvRT_SA_,comdat
	.weak	_ZSt15__alloc_on_moveISaISt13_Rb_tree_nodeINSt7__cxx1112basic_stringIcSt11char_traitsIcESaIcEEEEEEvRT_SA_ // -- Begin function _ZSt15__alloc_on_moveISaISt13_Rb_tree_nodeINSt7__cxx1112basic_stringIcSt11char_traitsIcESaIcEEEEEEvRT_SA_
	.p2align	2
	.type	_ZSt15__alloc_on_moveISaISt13_Rb_tree_nodeINSt7__cxx1112basic_stringIcSt11char_traitsIcESaIcEEEEEEvRT_SA_,@function
_ZSt15__alloc_on_moveISaISt13_Rb_tree_nodeINSt7__cxx1112basic_stringIcSt11char_traitsIcESaIcEEEEEEvRT_SA_: // @_ZSt15__alloc_on_moveISaISt13_Rb_tree_nodeINSt7__cxx1112basic_stringIcSt11char_traitsIcESaIcEEEEEEvRT_SA_
.Lfunc_begin54:
	.loc	6 711 0 is_stmt 1               // /usr/bin/../lib/gcc/aarch64-linux-gnu/11/../../../../include/c++/11/bits/alloc_traits.h:711:0
	.cfi_startproc
// %bb.0:
	sub	sp, sp, #48
	stp	x29, x30, [sp, #32]             // 16-byte Folded Spill
	add	x29, sp, #32
	.cfi_def_cfa w29, 16
	.cfi_offset w30, -8
	.cfi_offset w29, -16
	stur	x0, [x29, #-8]
	str	x1, [sp, #16]
.Ltmp168:
	.loc	6 718 26 prologue_end           // /usr/bin/../lib/gcc/aarch64-linux-gnu/11/../../../../include/c++/11/bits/alloc_traits.h:718:26
	ldur	x0, [x29, #-8]
	.loc	6 718 33 is_stmt 0              // /usr/bin/../lib/gcc/aarch64-linux-gnu/11/../../../../include/c++/11/bits/alloc_traits.h:718:33
	ldr	x1, [sp, #16]
	.loc	6 718 7                         // /usr/bin/../lib/gcc/aarch64-linux-gnu/11/../../../../include/c++/11/bits/alloc_traits.h:718:7
	ldrb	w2, [sp, #15]
	bl	_ZSt18__do_alloc_on_moveISaISt13_Rb_tree_nodeINSt7__cxx1112basic_stringIcSt11char_traitsIcESaIcEEEEEEvRT_SA_St17integral_constantIbLb1EE
	.loc	6 720 5 is_stmt 1               // /usr/bin/../lib/gcc/aarch64-linux-gnu/11/../../../../include/c++/11/bits/alloc_traits.h:720:5
	ldp	x29, x30, [sp, #32]             // 16-byte Folded Reload
	add	sp, sp, #48
	ret
.Ltmp169:
.Lfunc_end54:
	.size	_ZSt15__alloc_on_moveISaISt13_Rb_tree_nodeINSt7__cxx1112basic_stringIcSt11char_traitsIcESaIcEEEEEEvRT_SA_, .Lfunc_end54-_ZSt15__alloc_on_moveISaISt13_Rb_tree_nodeINSt7__cxx1112basic_stringIcSt11char_traitsIcESaIcEEEEEEvRT_SA_
	.cfi_endproc
                                        // -- End function
	.section	.text._ZNSt8_Rb_treeINSt7__cxx1112basic_stringIcSt11char_traitsIcESaIcEEES5_St9_IdentityIS5_ESt4lessIS5_ESaIS5_EE21_M_get_Node_allocatorEv,"axG",@progbits,_ZNSt8_Rb_treeINSt7__cxx1112basic_stringIcSt11char_traitsIcESaIcEEES5_St9_IdentityIS5_ESt4lessIS5_ESaIS5_EE21_M_get_Node_allocatorEv,comdat
	.weak	_ZNSt8_Rb_treeINSt7__cxx1112basic_stringIcSt11char_traitsIcESaIcEEES5_St9_IdentityIS5_ESt4lessIS5_ESaIS5_EE21_M_get_Node_allocatorEv // -- Begin function _ZNSt8_Rb_treeINSt7__cxx1112basic_stringIcSt11char_traitsIcESaIcEEES5_St9_IdentityIS5_ESt4lessIS5_ESaIS5_EE21_M_get_Node_allocatorEv
	.p2align	2
	.type	_ZNSt8_Rb_treeINSt7__cxx1112basic_stringIcSt11char_traitsIcESaIcEEES5_St9_IdentityIS5_ESt4lessIS5_ESaIS5_EE21_M_get_Node_allocatorEv,@function
_ZNSt8_Rb_treeINSt7__cxx1112basic_stringIcSt11char_traitsIcESaIcEEES5_St9_IdentityIS5_ESt4lessIS5_ESaIS5_EE21_M_get_Node_allocatorEv: // @_ZNSt8_Rb_treeINSt7__cxx1112basic_stringIcSt11char_traitsIcESaIcEEES5_St9_IdentityIS5_ESt4lessIS5_ESaIS5_EE21_M_get_Node_allocatorEv
.Lfunc_begin55:
	.loc	3 548 0                         // /usr/bin/../lib/gcc/aarch64-linux-gnu/11/../../../../include/c++/11/bits/stl_tree.h:548:0
	.cfi_startproc
// %bb.0:
	sub	sp, sp, #16
	.cfi_def_cfa_offset 16
	str	x0, [sp, #8]
	ldr	x0, [sp, #8]
.Ltmp171:
	.loc	3 548 9 prologue_end            // /usr/bin/../lib/gcc/aarch64-linux-gnu/11/../../../../include/c++/11/bits/stl_tree.h:548:9
	add	sp, sp, #16
	ret
.Ltmp172:
.Lfunc_end55:
	.size	_ZNSt8_Rb_treeINSt7__cxx1112basic_stringIcSt11char_traitsIcESaIcEEES5_St9_IdentityIS5_ESt4lessIS5_ESaIS5_EE21_M_get_Node_allocatorEv, .Lfunc_end55-_ZNSt8_Rb_treeINSt7__cxx1112basic_stringIcSt11char_traitsIcESaIcEEES5_St9_IdentityIS5_ESt4lessIS5_ESaIS5_EE21_M_get_Node_allocatorEv
	.cfi_endproc
                                        // -- End function
	.section	.text._ZNSt8_Rb_treeINSt7__cxx1112basic_stringIcSt11char_traitsIcESaIcEEES5_St9_IdentityIS5_ESt4lessIS5_ESaIS5_EE8_M_eraseEPSt13_Rb_tree_nodeIS5_E,"axG",@progbits,_ZNSt8_Rb_treeINSt7__cxx1112basic_stringIcSt11char_traitsIcESaIcEEES5_St9_IdentityIS5_ESt4lessIS5_ESaIS5_EE8_M_eraseEPSt13_Rb_tree_nodeIS5_E,comdat
	.weak	_ZNSt8_Rb_treeINSt7__cxx1112basic_stringIcSt11char_traitsIcESaIcEEES5_St9_IdentityIS5_ESt4lessIS5_ESaIS5_EE8_M_eraseEPSt13_Rb_tree_nodeIS5_E // -- Begin function _ZNSt8_Rb_treeINSt7__cxx1112basic_stringIcSt11char_traitsIcESaIcEEES5_St9_IdentityIS5_ESt4lessIS5_ESaIS5_EE8_M_eraseEPSt13_Rb_tree_nodeIS5_E
	.p2align	2
	.type	_ZNSt8_Rb_treeINSt7__cxx1112basic_stringIcSt11char_traitsIcESaIcEEES5_St9_IdentityIS5_ESt4lessIS5_ESaIS5_EE8_M_eraseEPSt13_Rb_tree_nodeIS5_E,@function
_ZNSt8_Rb_treeINSt7__cxx1112basic_stringIcSt11char_traitsIcESaIcEEES5_St9_IdentityIS5_ESt4lessIS5_ESaIS5_EE8_M_eraseEPSt13_Rb_tree_nodeIS5_E: // @_ZNSt8_Rb_treeINSt7__cxx1112basic_stringIcSt11char_traitsIcESaIcEEES5_St9_IdentityIS5_ESt4lessIS5_ESaIS5_EE8_M_eraseEPSt13_Rb_tree_nodeIS5_E
.Lfunc_begin56:
	.loc	3 1885 0                        // /usr/bin/../lib/gcc/aarch64-linux-gnu/11/../../../../include/c++/11/bits/stl_tree.h:1885:0
	.cfi_startproc
// %bb.0:
	sub	sp, sp, #48
	stp	x29, x30, [sp, #32]             // 16-byte Folded Spill
	add	x29, sp, #32
	.cfi_def_cfa w29, 16
	.cfi_offset w30, -8
	.cfi_offset w29, -16
	stur	x0, [x29, #-8]
	str	x1, [sp, #16]
	ldur	x8, [x29, #-8]
	str	x8, [sp]                        // 8-byte Folded Spill
.Ltmp173:
	.loc	3 1887 7 prologue_end           // /usr/bin/../lib/gcc/aarch64-linux-gnu/11/../../../../include/c++/11/bits/stl_tree.h:1887:7
	b	.LBB56_1
.LBB56_1:                               // =>This Inner Loop Header: Depth=1
	.loc	3 1887 14 is_stmt 0             // /usr/bin/../lib/gcc/aarch64-linux-gnu/11/../../../../include/c++/11/bits/stl_tree.h:1887:14
	ldr	x8, [sp, #16]
	.loc	3 1887 7                        // /usr/bin/../lib/gcc/aarch64-linux-gnu/11/../../../../include/c++/11/bits/stl_tree.h:1887:7
	cbz	x8, .LBB56_3
	b	.LBB56_2
.LBB56_2:                               //   in Loop: Header=BB56_1 Depth=1
.Ltmp174:
	.loc	3 1889 22 is_stmt 1             // /usr/bin/../lib/gcc/aarch64-linux-gnu/11/../../../../include/c++/11/bits/stl_tree.h:1889:22
	ldr	x0, [sp, #16]
	.loc	3 1889 13 is_stmt 0             // /usr/bin/../lib/gcc/aarch64-linux-gnu/11/../../../../include/c++/11/bits/stl_tree.h:1889:13
	bl	_ZNSt8_Rb_treeINSt7__cxx1112basic_stringIcSt11char_traitsIcESaIcEEES5_St9_IdentityIS5_ESt4lessIS5_ESaIS5_EE8_S_rightEPSt18_Rb_tree_node_base
	mov	x1, x0
	ldr	x0, [sp]                        // 8-byte Folded Reload
	.loc	3 1889 4                        // /usr/bin/../lib/gcc/aarch64-linux-gnu/11/../../../../include/c++/11/bits/stl_tree.h:1889:4
	bl	_ZNSt8_Rb_treeINSt7__cxx1112basic_stringIcSt11char_traitsIcESaIcEEES5_St9_IdentityIS5_ESt4lessIS5_ESaIS5_EE8_M_eraseEPSt13_Rb_tree_nodeIS5_E
	.loc	3 1890 29 is_stmt 1             // /usr/bin/../lib/gcc/aarch64-linux-gnu/11/../../../../include/c++/11/bits/stl_tree.h:1890:29
	ldr	x0, [sp, #16]
	.loc	3 1890 21 is_stmt 0             // /usr/bin/../lib/gcc/aarch64-linux-gnu/11/../../../../include/c++/11/bits/stl_tree.h:1890:21
	bl	_ZNSt8_Rb_treeINSt7__cxx1112basic_stringIcSt11char_traitsIcESaIcEEES5_St9_IdentityIS5_ESt4lessIS5_ESaIS5_EE7_S_leftEPSt18_Rb_tree_node_base
	mov	x8, x0
	ldr	x0, [sp]                        // 8-byte Folded Reload
	.loc	3 1890 15                       // /usr/bin/../lib/gcc/aarch64-linux-gnu/11/../../../../include/c++/11/bits/stl_tree.h:1890:15
	str	x8, [sp, #8]
	.loc	3 1891 17 is_stmt 1             // /usr/bin/../lib/gcc/aarch64-linux-gnu/11/../../../../include/c++/11/bits/stl_tree.h:1891:17
	ldr	x1, [sp, #16]
	.loc	3 1891 4 is_stmt 0              // /usr/bin/../lib/gcc/aarch64-linux-gnu/11/../../../../include/c++/11/bits/stl_tree.h:1891:4
	bl	_ZNSt8_Rb_treeINSt7__cxx1112basic_stringIcSt11char_traitsIcESaIcEEES5_St9_IdentityIS5_ESt4lessIS5_ESaIS5_EE12_M_drop_nodeEPSt13_Rb_tree_nodeIS5_E
	.loc	3 1892 10 is_stmt 1             // /usr/bin/../lib/gcc/aarch64-linux-gnu/11/../../../../include/c++/11/bits/stl_tree.h:1892:10
	ldr	x8, [sp, #8]
	.loc	3 1892 8 is_stmt 0              // /usr/bin/../lib/gcc/aarch64-linux-gnu/11/../../../../include/c++/11/bits/stl_tree.h:1892:8
	str	x8, [sp, #16]
.Ltmp175:
	.loc	3 1887 7 is_stmt 1              // /usr/bin/../lib/gcc/aarch64-linux-gnu/11/../../../../include/c++/11/bits/stl_tree.h:1887:7
	b	.LBB56_1
.LBB56_3:
	.loc	3 1894 5                        // /usr/bin/../lib/gcc/aarch64-linux-gnu/11/../../../../include/c++/11/bits/stl_tree.h:1894:5
	ldp	x29, x30, [sp, #32]             // 16-byte Folded Reload
	add	sp, sp, #48
	ret
.Ltmp176:
.Lfunc_end56:
	.size	_ZNSt8_Rb_treeINSt7__cxx1112basic_stringIcSt11char_traitsIcESaIcEEES5_St9_IdentityIS5_ESt4lessIS5_ESaIS5_EE8_M_eraseEPSt13_Rb_tree_nodeIS5_E, .Lfunc_end56-_ZNSt8_Rb_treeINSt7__cxx1112basic_stringIcSt11char_traitsIcESaIcEEES5_St9_IdentityIS5_ESt4lessIS5_ESaIS5_EE8_M_eraseEPSt13_Rb_tree_nodeIS5_E
	.cfi_endproc
                                        // -- End function
	.section	.text._ZNSt8_Rb_treeINSt7__cxx1112basic_stringIcSt11char_traitsIcESaIcEEES5_St9_IdentityIS5_ESt4lessIS5_ESaIS5_EE8_M_beginEv,"axG",@progbits,_ZNSt8_Rb_treeINSt7__cxx1112basic_stringIcSt11char_traitsIcESaIcEEES5_St9_IdentityIS5_ESt4lessIS5_ESaIS5_EE8_M_beginEv,comdat
	.weak	_ZNSt8_Rb_treeINSt7__cxx1112basic_stringIcSt11char_traitsIcESaIcEEES5_St9_IdentityIS5_ESt4lessIS5_ESaIS5_EE8_M_beginEv // -- Begin function _ZNSt8_Rb_treeINSt7__cxx1112basic_stringIcSt11char_traitsIcESaIcEEES5_St9_IdentityIS5_ESt4lessIS5_ESaIS5_EE8_M_beginEv
	.p2align	2
	.type	_ZNSt8_Rb_treeINSt7__cxx1112basic_stringIcSt11char_traitsIcESaIcEEES5_St9_IdentityIS5_ESt4lessIS5_ESaIS5_EE8_M_beginEv,@function
_ZNSt8_Rb_treeINSt7__cxx1112basic_stringIcSt11char_traitsIcESaIcEEES5_St9_IdentityIS5_ESt4lessIS5_ESaIS5_EE8_M_beginEv: // @_ZNSt8_Rb_treeINSt7__cxx1112basic_stringIcSt11char_traitsIcESaIcEEES5_St9_IdentityIS5_ESt4lessIS5_ESaIS5_EE8_M_beginEv
.Lfunc_begin57:
	.loc	3 739 0                         // /usr/bin/../lib/gcc/aarch64-linux-gnu/11/../../../../include/c++/11/bits/stl_tree.h:739:0
	.cfi_startproc
// %bb.0:
	sub	sp, sp, #32
	stp	x29, x30, [sp, #16]             // 16-byte Folded Spill
	add	x29, sp, #16
	.cfi_def_cfa w29, 16
	.cfi_offset w30, -8
	.cfi_offset w29, -16
	str	x0, [sp, #8]
	ldr	x0, [sp, #8]
.Ltmp177:
	.loc	3 739 16 prologue_end           // /usr/bin/../lib/gcc/aarch64-linux-gnu/11/../../../../include/c++/11/bits/stl_tree.h:739:16
	bl	_ZNKSt8_Rb_treeINSt7__cxx1112basic_stringIcSt11char_traitsIcESaIcEEES5_St9_IdentityIS5_ESt4lessIS5_ESaIS5_EE9_M_mbeginEv
	.loc	3 739 9 is_stmt 0               // /usr/bin/../lib/gcc/aarch64-linux-gnu/11/../../../../include/c++/11/bits/stl_tree.h:739:9
	ldp	x29, x30, [sp, #16]             // 16-byte Folded Reload
	add	sp, sp, #32
	ret
.Ltmp178:
.Lfunc_end57:
	.size	_ZNSt8_Rb_treeINSt7__cxx1112basic_stringIcSt11char_traitsIcESaIcEEES5_St9_IdentityIS5_ESt4lessIS5_ESaIS5_EE8_M_beginEv, .Lfunc_end57-_ZNSt8_Rb_treeINSt7__cxx1112basic_stringIcSt11char_traitsIcESaIcEEES5_St9_IdentityIS5_ESt4lessIS5_ESaIS5_EE8_M_beginEv
	.cfi_endproc
                                        // -- End function
	.section	.text._ZNSt8_Rb_treeINSt7__cxx1112basic_stringIcSt11char_traitsIcESaIcEEES5_St9_IdentityIS5_ESt4lessIS5_ESaIS5_EE8_S_rightEPSt18_Rb_tree_node_base,"axG",@progbits,_ZNSt8_Rb_treeINSt7__cxx1112basic_stringIcSt11char_traitsIcESaIcEEES5_St9_IdentityIS5_ESt4lessIS5_ESaIS5_EE8_S_rightEPSt18_Rb_tree_node_base,comdat
	.weak	_ZNSt8_Rb_treeINSt7__cxx1112basic_stringIcSt11char_traitsIcESaIcEEES5_St9_IdentityIS5_ESt4lessIS5_ESaIS5_EE8_S_rightEPSt18_Rb_tree_node_base // -- Begin function _ZNSt8_Rb_treeINSt7__cxx1112basic_stringIcSt11char_traitsIcESaIcEEES5_St9_IdentityIS5_ESt4lessIS5_ESaIS5_EE8_S_rightEPSt18_Rb_tree_node_base
	.p2align	2
	.type	_ZNSt8_Rb_treeINSt7__cxx1112basic_stringIcSt11char_traitsIcESaIcEEES5_St9_IdentityIS5_ESt4lessIS5_ESaIS5_EE8_S_rightEPSt18_Rb_tree_node_base,@function
_ZNSt8_Rb_treeINSt7__cxx1112basic_stringIcSt11char_traitsIcESaIcEEES5_St9_IdentityIS5_ESt4lessIS5_ESaIS5_EE8_S_rightEPSt18_Rb_tree_node_base: // @_ZNSt8_Rb_treeINSt7__cxx1112basic_stringIcSt11char_traitsIcESaIcEEES5_St9_IdentityIS5_ESt4lessIS5_ESaIS5_EE8_S_rightEPSt18_Rb_tree_node_base
.Lfunc_begin58:
	.loc	3 788 0 is_stmt 1               // /usr/bin/../lib/gcc/aarch64-linux-gnu/11/../../../../include/c++/11/bits/stl_tree.h:788:0
	.cfi_startproc
// %bb.0:
	sub	sp, sp, #16
	.cfi_def_cfa_offset 16
	str	x0, [sp, #8]
.Ltmp180:
	.loc	3 788 40 prologue_end           // /usr/bin/../lib/gcc/aarch64-linux-gnu/11/../../../../include/c++/11/bits/stl_tree.h:788:40
	ldr	x8, [sp, #8]
	.loc	3 788 45 is_stmt 0              // /usr/bin/../lib/gcc/aarch64-linux-gnu/11/../../../../include/c++/11/bits/stl_tree.h:788:45
	ldr	x0, [x8, #24]
	.loc	3 788 9                         // /usr/bin/../lib/gcc/aarch64-linux-gnu/11/../../../../include/c++/11/bits/stl_tree.h:788:9
	add	sp, sp, #16
	ret
.Ltmp181:
.Lfunc_end58:
	.size	_ZNSt8_Rb_treeINSt7__cxx1112basic_stringIcSt11char_traitsIcESaIcEEES5_St9_IdentityIS5_ESt4lessIS5_ESaIS5_EE8_S_rightEPSt18_Rb_tree_node_base, .Lfunc_end58-_ZNSt8_Rb_treeINSt7__cxx1112basic_stringIcSt11char_traitsIcESaIcEEES5_St9_IdentityIS5_ESt4lessIS5_ESaIS5_EE8_S_rightEPSt18_Rb_tree_node_base
	.cfi_endproc
                                        // -- End function
	.section	.text._ZNSt8_Rb_treeINSt7__cxx1112basic_stringIcSt11char_traitsIcESaIcEEES5_St9_IdentityIS5_ESt4lessIS5_ESaIS5_EE7_S_leftEPSt18_Rb_tree_node_base,"axG",@progbits,_ZNSt8_Rb_treeINSt7__cxx1112basic_stringIcSt11char_traitsIcESaIcEEES5_St9_IdentityIS5_ESt4lessIS5_ESaIS5_EE7_S_leftEPSt18_Rb_tree_node_base,comdat
	.weak	_ZNSt8_Rb_treeINSt7__cxx1112basic_stringIcSt11char_traitsIcESaIcEEES5_St9_IdentityIS5_ESt4lessIS5_ESaIS5_EE7_S_leftEPSt18_Rb_tree_node_base // -- Begin function _ZNSt8_Rb_treeINSt7__cxx1112basic_stringIcSt11char_traitsIcESaIcEEES5_St9_IdentityIS5_ESt4lessIS5_ESaIS5_EE7_S_leftEPSt18_Rb_tree_node_base
	.p2align	2
	.type	_ZNSt8_Rb_treeINSt7__cxx1112basic_stringIcSt11char_traitsIcESaIcEEES5_St9_IdentityIS5_ESt4lessIS5_ESaIS5_EE7_S_leftEPSt18_Rb_tree_node_base,@function
_ZNSt8_Rb_treeINSt7__cxx1112basic_stringIcSt11char_traitsIcESaIcEEES5_St9_IdentityIS5_ESt4lessIS5_ESaIS5_EE7_S_leftEPSt18_Rb_tree_node_base: // @_ZNSt8_Rb_treeINSt7__cxx1112basic_stringIcSt11char_traitsIcESaIcEEES5_St9_IdentityIS5_ESt4lessIS5_ESaIS5_EE7_S_leftEPSt18_Rb_tree_node_base
.Lfunc_begin59:
	.loc	3 780 0 is_stmt 1               // /usr/bin/../lib/gcc/aarch64-linux-gnu/11/../../../../include/c++/11/bits/stl_tree.h:780:0
	.cfi_startproc
// %bb.0:
	sub	sp, sp, #16
	.cfi_def_cfa_offset 16
	str	x0, [sp, #8]
.Ltmp183:
	.loc	3 780 40 prologue_end           // /usr/bin/../lib/gcc/aarch64-linux-gnu/11/../../../../include/c++/11/bits/stl_tree.h:780:40
	ldr	x8, [sp, #8]
	.loc	3 780 45 is_stmt 0              // /usr/bin/../lib/gcc/aarch64-linux-gnu/11/../../../../include/c++/11/bits/stl_tree.h:780:45
	ldr	x0, [x8, #16]
	.loc	3 780 9                         // /usr/bin/../lib/gcc/aarch64-linux-gnu/11/../../../../include/c++/11/bits/stl_tree.h:780:9
	add	sp, sp, #16
	ret
.Ltmp184:
.Lfunc_end59:
	.size	_ZNSt8_Rb_treeINSt7__cxx1112basic_stringIcSt11char_traitsIcESaIcEEES5_St9_IdentityIS5_ESt4lessIS5_ESaIS5_EE7_S_leftEPSt18_Rb_tree_node_base, .Lfunc_end59-_ZNSt8_Rb_treeINSt7__cxx1112basic_stringIcSt11char_traitsIcESaIcEEES5_St9_IdentityIS5_ESt4lessIS5_ESaIS5_EE7_S_leftEPSt18_Rb_tree_node_base
	.cfi_endproc
                                        // -- End function
	.section	.text._ZNSt8_Rb_treeINSt7__cxx1112basic_stringIcSt11char_traitsIcESaIcEEES5_St9_IdentityIS5_ESt4lessIS5_ESaIS5_EE12_M_drop_nodeEPSt13_Rb_tree_nodeIS5_E,"axG",@progbits,_ZNSt8_Rb_treeINSt7__cxx1112basic_stringIcSt11char_traitsIcESaIcEEES5_St9_IdentityIS5_ESt4lessIS5_ESaIS5_EE12_M_drop_nodeEPSt13_Rb_tree_nodeIS5_E,comdat
	.weak	_ZNSt8_Rb_treeINSt7__cxx1112basic_stringIcSt11char_traitsIcESaIcEEES5_St9_IdentityIS5_ESt4lessIS5_ESaIS5_EE12_M_drop_nodeEPSt13_Rb_tree_nodeIS5_E // -- Begin function _ZNSt8_Rb_treeINSt7__cxx1112basic_stringIcSt11char_traitsIcESaIcEEES5_St9_IdentityIS5_ESt4lessIS5_ESaIS5_EE12_M_drop_nodeEPSt13_Rb_tree_nodeIS5_E
	.p2align	2
	.type	_ZNSt8_Rb_treeINSt7__cxx1112basic_stringIcSt11char_traitsIcESaIcEEES5_St9_IdentityIS5_ESt4lessIS5_ESaIS5_EE12_M_drop_nodeEPSt13_Rb_tree_nodeIS5_E,@function
_ZNSt8_Rb_treeINSt7__cxx1112basic_stringIcSt11char_traitsIcESaIcEEES5_St9_IdentityIS5_ESt4lessIS5_ESaIS5_EE12_M_drop_nodeEPSt13_Rb_tree_nodeIS5_E: // @_ZNSt8_Rb_treeINSt7__cxx1112basic_stringIcSt11char_traitsIcESaIcEEES5_St9_IdentityIS5_ESt4lessIS5_ESaIS5_EE12_M_drop_nodeEPSt13_Rb_tree_nodeIS5_E
.Lfunc_begin60:
	.loc	3 630 0 is_stmt 1               // /usr/bin/../lib/gcc/aarch64-linux-gnu/11/../../../../include/c++/11/bits/stl_tree.h:630:0
	.cfi_startproc
// %bb.0:
	sub	sp, sp, #48
	stp	x29, x30, [sp, #32]             // 16-byte Folded Spill
	add	x29, sp, #32
	.cfi_def_cfa w29, 16
	.cfi_offset w30, -8
	.cfi_offset w29, -16
	stur	x0, [x29, #-8]
	str	x1, [sp, #16]
	ldur	x0, [x29, #-8]
	str	x0, [sp, #8]                    // 8-byte Folded Spill
.Ltmp185:
	.loc	3 631 18 prologue_end           // /usr/bin/../lib/gcc/aarch64-linux-gnu/11/../../../../include/c++/11/bits/stl_tree.h:631:18
	ldr	x1, [sp, #16]
	.loc	3 631 2 is_stmt 0               // /usr/bin/../lib/gcc/aarch64-linux-gnu/11/../../../../include/c++/11/bits/stl_tree.h:631:2
	bl	_ZNSt8_Rb_treeINSt7__cxx1112basic_stringIcSt11char_traitsIcESaIcEEES5_St9_IdentityIS5_ESt4lessIS5_ESaIS5_EE15_M_destroy_nodeEPSt13_Rb_tree_nodeIS5_E
	ldr	x0, [sp, #8]                    // 8-byte Folded Reload
	.loc	3 632 14 is_stmt 1              // /usr/bin/../lib/gcc/aarch64-linux-gnu/11/../../../../include/c++/11/bits/stl_tree.h:632:14
	ldr	x1, [sp, #16]
	.loc	3 632 2 is_stmt 0               // /usr/bin/../lib/gcc/aarch64-linux-gnu/11/../../../../include/c++/11/bits/stl_tree.h:632:2
	bl	_ZNSt8_Rb_treeINSt7__cxx1112basic_stringIcSt11char_traitsIcESaIcEEES5_St9_IdentityIS5_ESt4lessIS5_ESaIS5_EE11_M_put_nodeEPSt13_Rb_tree_nodeIS5_E
	.loc	3 633 7 is_stmt 1               // /usr/bin/../lib/gcc/aarch64-linux-gnu/11/../../../../include/c++/11/bits/stl_tree.h:633:7
	ldp	x29, x30, [sp, #32]             // 16-byte Folded Reload
	add	sp, sp, #48
	ret
.Ltmp186:
.Lfunc_end60:
	.size	_ZNSt8_Rb_treeINSt7__cxx1112basic_stringIcSt11char_traitsIcESaIcEEES5_St9_IdentityIS5_ESt4lessIS5_ESaIS5_EE12_M_drop_nodeEPSt13_Rb_tree_nodeIS5_E, .Lfunc_end60-_ZNSt8_Rb_treeINSt7__cxx1112basic_stringIcSt11char_traitsIcESaIcEEES5_St9_IdentityIS5_ESt4lessIS5_ESaIS5_EE12_M_drop_nodeEPSt13_Rb_tree_nodeIS5_E
	.cfi_endproc
                                        // -- End function
	.section	.text._ZNSt8_Rb_treeINSt7__cxx1112basic_stringIcSt11char_traitsIcESaIcEEES5_St9_IdentityIS5_ESt4lessIS5_ESaIS5_EE15_M_destroy_nodeEPSt13_Rb_tree_nodeIS5_E,"axG",@progbits,_ZNSt8_Rb_treeINSt7__cxx1112basic_stringIcSt11char_traitsIcESaIcEEES5_St9_IdentityIS5_ESt4lessIS5_ESaIS5_EE15_M_destroy_nodeEPSt13_Rb_tree_nodeIS5_E,comdat
	.weak	_ZNSt8_Rb_treeINSt7__cxx1112basic_stringIcSt11char_traitsIcESaIcEEES5_St9_IdentityIS5_ESt4lessIS5_ESaIS5_EE15_M_destroy_nodeEPSt13_Rb_tree_nodeIS5_E // -- Begin function _ZNSt8_Rb_treeINSt7__cxx1112basic_stringIcSt11char_traitsIcESaIcEEES5_St9_IdentityIS5_ESt4lessIS5_ESaIS5_EE15_M_destroy_nodeEPSt13_Rb_tree_nodeIS5_E
	.p2align	2
	.type	_ZNSt8_Rb_treeINSt7__cxx1112basic_stringIcSt11char_traitsIcESaIcEEES5_St9_IdentityIS5_ESt4lessIS5_ESaIS5_EE15_M_destroy_nodeEPSt13_Rb_tree_nodeIS5_E,@function
_ZNSt8_Rb_treeINSt7__cxx1112basic_stringIcSt11char_traitsIcESaIcEEES5_St9_IdentityIS5_ESt4lessIS5_ESaIS5_EE15_M_destroy_nodeEPSt13_Rb_tree_nodeIS5_E: // @_ZNSt8_Rb_treeINSt7__cxx1112basic_stringIcSt11char_traitsIcESaIcEEES5_St9_IdentityIS5_ESt4lessIS5_ESaIS5_EE15_M_destroy_nodeEPSt13_Rb_tree_nodeIS5_E
.Lfunc_begin61:
	.loc	3 619 0                         // /usr/bin/../lib/gcc/aarch64-linux-gnu/11/../../../../include/c++/11/bits/stl_tree.h:619:0
	.cfi_startproc
	.cfi_personality 156, DW.ref.__gxx_personality_v0
	.cfi_lsda 28, .Lexception7
// %bb.0:
	sub	sp, sp, #48
	stp	x29, x30, [sp, #32]             // 16-byte Folded Spill
	add	x29, sp, #32
	.cfi_def_cfa w29, 16
	.cfi_offset w30, -8
	.cfi_offset w29, -16
	stur	x0, [x29, #-8]
	str	x1, [sp, #16]
	ldur	x0, [x29, #-8]
.Ltmp190:
	.loc	3 623 25 prologue_end           // /usr/bin/../lib/gcc/aarch64-linux-gnu/11/../../../../include/c++/11/bits/stl_tree.h:623:25
	bl	_ZNSt8_Rb_treeINSt7__cxx1112basic_stringIcSt11char_traitsIcESaIcEEES5_St9_IdentityIS5_ESt4lessIS5_ESaIS5_EE21_M_get_Node_allocatorEv
	str	x0, [sp]                        // 8-byte Folded Spill
	.loc	3 623 50 is_stmt 0              // /usr/bin/../lib/gcc/aarch64-linux-gnu/11/../../../../include/c++/11/bits/stl_tree.h:623:50
	ldr	x0, [sp, #16]
.Ltmp187:
	.loc	3 623 55                        // /usr/bin/../lib/gcc/aarch64-linux-gnu/11/../../../../include/c++/11/bits/stl_tree.h:623:55
	bl	_ZNSt13_Rb_tree_nodeINSt7__cxx1112basic_stringIcSt11char_traitsIcESaIcEEEE9_M_valptrEv
	str	x0, [sp, #8]                    // 8-byte Folded Spill
.Ltmp188:
	b	.LBB61_1
.LBB61_1:
	.loc	3 0 55                          // /usr/bin/../lib/gcc/aarch64-linux-gnu/11/../../../../include/c++/11/bits/stl_tree.h:0:55
	ldr	x1, [sp, #8]                    // 8-byte Folded Reload
	ldr	x0, [sp]                        // 8-byte Folded Reload
	.loc	3 623 2                         // /usr/bin/../lib/gcc/aarch64-linux-gnu/11/../../../../include/c++/11/bits/stl_tree.h:623:2
	bl	_ZNSt16allocator_traitsISaISt13_Rb_tree_nodeINSt7__cxx1112basic_stringIcSt11char_traitsIcESaIcEEEEEE7destroyIS6_EEvRS8_PT_
	.loc	3 626 7 is_stmt 1               // /usr/bin/../lib/gcc/aarch64-linux-gnu/11/../../../../include/c++/11/bits/stl_tree.h:626:7
	ldp	x29, x30, [sp, #32]             // 16-byte Folded Reload
	add	sp, sp, #48
	ret
.LBB61_2:
.Ltmp189:
	.loc	3 623 55                        // /usr/bin/../lib/gcc/aarch64-linux-gnu/11/../../../../include/c++/11/bits/stl_tree.h:623:55
	bl	__clang_call_terminate
.Ltmp191:
.Lfunc_end61:
	.size	_ZNSt8_Rb_treeINSt7__cxx1112basic_stringIcSt11char_traitsIcESaIcEEES5_St9_IdentityIS5_ESt4lessIS5_ESaIS5_EE15_M_destroy_nodeEPSt13_Rb_tree_nodeIS5_E, .Lfunc_end61-_ZNSt8_Rb_treeINSt7__cxx1112basic_stringIcSt11char_traitsIcESaIcEEES5_St9_IdentityIS5_ESt4lessIS5_ESaIS5_EE15_M_destroy_nodeEPSt13_Rb_tree_nodeIS5_E
	.cfi_endproc
	.section	.gcc_except_table._ZNSt8_Rb_treeINSt7__cxx1112basic_stringIcSt11char_traitsIcESaIcEEES5_St9_IdentityIS5_ESt4lessIS5_ESaIS5_EE15_M_destroy_nodeEPSt13_Rb_tree_nodeIS5_E,"aG",@progbits,_ZNSt8_Rb_treeINSt7__cxx1112basic_stringIcSt11char_traitsIcESaIcEEES5_St9_IdentityIS5_ESt4lessIS5_ESaIS5_EE15_M_destroy_nodeEPSt13_Rb_tree_nodeIS5_E,comdat
	.p2align	2
GCC_except_table61:
.Lexception7:
	.byte	255                             // @LPStart Encoding = omit
	.byte	156                             // @TType Encoding = indirect pcrel sdata8
	.uleb128 .Lttbase4-.Lttbaseref4
.Lttbaseref4:
	.byte	1                               // Call site Encoding = uleb128
	.uleb128 .Lcst_end7-.Lcst_begin7
.Lcst_begin7:
	.uleb128 .Ltmp187-.Lfunc_begin61        // >> Call Site 1 <<
	.uleb128 .Ltmp188-.Ltmp187              //   Call between .Ltmp187 and .Ltmp188
	.uleb128 .Ltmp189-.Lfunc_begin61        //     jumps to .Ltmp189
	.byte	1                               //   On action: 1
.Lcst_end7:
	.byte	1                               // >> Action Record 1 <<
                                        //   Catch TypeInfo 1
	.byte	0                               //   No further actions
	.p2align	2
                                        // >> Catch TypeInfos <<
	.xword	0                               // TypeInfo 1
.Lttbase4:
	.p2align	2
                                        // -- End function
	.section	.text._ZNSt8_Rb_treeINSt7__cxx1112basic_stringIcSt11char_traitsIcESaIcEEES5_St9_IdentityIS5_ESt4lessIS5_ESaIS5_EE11_M_put_nodeEPSt13_Rb_tree_nodeIS5_E,"axG",@progbits,_ZNSt8_Rb_treeINSt7__cxx1112basic_stringIcSt11char_traitsIcESaIcEEES5_St9_IdentityIS5_ESt4lessIS5_ESaIS5_EE11_M_put_nodeEPSt13_Rb_tree_nodeIS5_E,comdat
	.weak	_ZNSt8_Rb_treeINSt7__cxx1112basic_stringIcSt11char_traitsIcESaIcEEES5_St9_IdentityIS5_ESt4lessIS5_ESaIS5_EE11_M_put_nodeEPSt13_Rb_tree_nodeIS5_E // -- Begin function _ZNSt8_Rb_treeINSt7__cxx1112basic_stringIcSt11char_traitsIcESaIcEEES5_St9_IdentityIS5_ESt4lessIS5_ESaIS5_EE11_M_put_nodeEPSt13_Rb_tree_nodeIS5_E
	.p2align	2
	.type	_ZNSt8_Rb_treeINSt7__cxx1112basic_stringIcSt11char_traitsIcESaIcEEES5_St9_IdentityIS5_ESt4lessIS5_ESaIS5_EE11_M_put_nodeEPSt13_Rb_tree_nodeIS5_E,@function
_ZNSt8_Rb_treeINSt7__cxx1112basic_stringIcSt11char_traitsIcESaIcEEES5_St9_IdentityIS5_ESt4lessIS5_ESaIS5_EE11_M_put_nodeEPSt13_Rb_tree_nodeIS5_E: // @_ZNSt8_Rb_treeINSt7__cxx1112basic_stringIcSt11char_traitsIcESaIcEEES5_St9_IdentityIS5_ESt4lessIS5_ESaIS5_EE11_M_put_nodeEPSt13_Rb_tree_nodeIS5_E
.Lfunc_begin62:
	.loc	3 565 0                         // /usr/bin/../lib/gcc/aarch64-linux-gnu/11/../../../../include/c++/11/bits/stl_tree.h:565:0
	.cfi_startproc
	.cfi_personality 156, DW.ref.__gxx_personality_v0
	.cfi_lsda 28, .Lexception8
// %bb.0:
	sub	sp, sp, #32
	stp	x29, x30, [sp, #16]             // 16-byte Folded Spill
	add	x29, sp, #16
	.cfi_def_cfa w29, 16
	.cfi_offset w30, -8
	.cfi_offset w29, -16
	str	x0, [sp, #8]
	str	x1, [sp]
	ldr	x0, [sp, #8]
.Ltmp195:
	.loc	3 565 35 prologue_end           // /usr/bin/../lib/gcc/aarch64-linux-gnu/11/../../../../include/c++/11/bits/stl_tree.h:565:35
	bl	_ZNSt8_Rb_treeINSt7__cxx1112basic_stringIcSt11char_traitsIcESaIcEEES5_St9_IdentityIS5_ESt4lessIS5_ESaIS5_EE21_M_get_Node_allocatorEv
	.loc	3 565 60 is_stmt 0              // /usr/bin/../lib/gcc/aarch64-linux-gnu/11/../../../../include/c++/11/bits/stl_tree.h:565:60
	ldr	x1, [sp]
.Ltmp192:
	mov	x2, #1
	.loc	3 565 9                         // /usr/bin/../lib/gcc/aarch64-linux-gnu/11/../../../../include/c++/11/bits/stl_tree.h:565:9
	bl	_ZNSt16allocator_traitsISaISt13_Rb_tree_nodeINSt7__cxx1112basic_stringIcSt11char_traitsIcESaIcEEEEEE10deallocateERS8_PS7_m
.Ltmp193:
	b	.LBB62_1
.LBB62_1:
	.loc	3 565 69                        // /usr/bin/../lib/gcc/aarch64-linux-gnu/11/../../../../include/c++/11/bits/stl_tree.h:565:69
	ldp	x29, x30, [sp, #16]             // 16-byte Folded Reload
	add	sp, sp, #32
	ret
.LBB62_2:
.Ltmp194:
	.loc	3 565 9                         // /usr/bin/../lib/gcc/aarch64-linux-gnu/11/../../../../include/c++/11/bits/stl_tree.h:565:9
	bl	__clang_call_terminate
.Ltmp196:
.Lfunc_end62:
	.size	_ZNSt8_Rb_treeINSt7__cxx1112basic_stringIcSt11char_traitsIcESaIcEEES5_St9_IdentityIS5_ESt4lessIS5_ESaIS5_EE11_M_put_nodeEPSt13_Rb_tree_nodeIS5_E, .Lfunc_end62-_ZNSt8_Rb_treeINSt7__cxx1112basic_stringIcSt11char_traitsIcESaIcEEES5_St9_IdentityIS5_ESt4lessIS5_ESaIS5_EE11_M_put_nodeEPSt13_Rb_tree_nodeIS5_E
	.cfi_endproc
	.section	.gcc_except_table._ZNSt8_Rb_treeINSt7__cxx1112basic_stringIcSt11char_traitsIcESaIcEEES5_St9_IdentityIS5_ESt4lessIS5_ESaIS5_EE11_M_put_nodeEPSt13_Rb_tree_nodeIS5_E,"aG",@progbits,_ZNSt8_Rb_treeINSt7__cxx1112basic_stringIcSt11char_traitsIcESaIcEEES5_St9_IdentityIS5_ESt4lessIS5_ESaIS5_EE11_M_put_nodeEPSt13_Rb_tree_nodeIS5_E,comdat
	.p2align	2
GCC_except_table62:
.Lexception8:
	.byte	255                             // @LPStart Encoding = omit
	.byte	156                             // @TType Encoding = indirect pcrel sdata8
	.uleb128 .Lttbase5-.Lttbaseref5
.Lttbaseref5:
	.byte	1                               // Call site Encoding = uleb128
	.uleb128 .Lcst_end8-.Lcst_begin8
.Lcst_begin8:
	.uleb128 .Ltmp192-.Lfunc_begin62        // >> Call Site 1 <<
	.uleb128 .Ltmp193-.Ltmp192              //   Call between .Ltmp192 and .Ltmp193
	.uleb128 .Ltmp194-.Lfunc_begin62        //     jumps to .Ltmp194
	.byte	1                               //   On action: 1
.Lcst_end8:
	.byte	1                               // >> Action Record 1 <<
                                        //   Catch TypeInfo 1
	.byte	0                               //   No further actions
	.p2align	2
                                        // >> Catch TypeInfos <<
	.xword	0                               // TypeInfo 1
.Lttbase5:
	.p2align	2
                                        // -- End function
	.section	.text._ZNSt16allocator_traitsISaISt13_Rb_tree_nodeINSt7__cxx1112basic_stringIcSt11char_traitsIcESaIcEEEEEE7destroyIS6_EEvRS8_PT_,"axG",@progbits,_ZNSt16allocator_traitsISaISt13_Rb_tree_nodeINSt7__cxx1112basic_stringIcSt11char_traitsIcESaIcEEEEEE7destroyIS6_EEvRS8_PT_,comdat
	.weak	_ZNSt16allocator_traitsISaISt13_Rb_tree_nodeINSt7__cxx1112basic_stringIcSt11char_traitsIcESaIcEEEEEE7destroyIS6_EEvRS8_PT_ // -- Begin function _ZNSt16allocator_traitsISaISt13_Rb_tree_nodeINSt7__cxx1112basic_stringIcSt11char_traitsIcESaIcEEEEEE7destroyIS6_EEvRS8_PT_
	.p2align	2
	.type	_ZNSt16allocator_traitsISaISt13_Rb_tree_nodeINSt7__cxx1112basic_stringIcSt11char_traitsIcESaIcEEEEEE7destroyIS6_EEvRS8_PT_,@function
_ZNSt16allocator_traitsISaISt13_Rb_tree_nodeINSt7__cxx1112basic_stringIcSt11char_traitsIcESaIcEEEEEE7destroyIS6_EEvRS8_PT_: // @_ZNSt16allocator_traitsISaISt13_Rb_tree_nodeINSt7__cxx1112basic_stringIcSt11char_traitsIcESaIcEEEEEE7destroyIS6_EEvRS8_PT_
.Lfunc_begin63:
	.loc	6 533 0 is_stmt 1               // /usr/bin/../lib/gcc/aarch64-linux-gnu/11/../../../../include/c++/11/bits/alloc_traits.h:533:0
	.cfi_startproc
// %bb.0:
	sub	sp, sp, #32
	stp	x29, x30, [sp, #16]             // 16-byte Folded Spill
	add	x29, sp, #16
	.cfi_def_cfa w29, 16
	.cfi_offset w30, -8
	.cfi_offset w29, -16
	str	x0, [sp, #8]
	str	x1, [sp]
.Ltmp197:
	.loc	6 535 4 prologue_end            // /usr/bin/../lib/gcc/aarch64-linux-gnu/11/../../../../include/c++/11/bits/alloc_traits.h:535:4
	ldr	x0, [sp, #8]
	.loc	6 535 16 is_stmt 0              // /usr/bin/../lib/gcc/aarch64-linux-gnu/11/../../../../include/c++/11/bits/alloc_traits.h:535:16
	ldr	x1, [sp]
	.loc	6 535 8                         // /usr/bin/../lib/gcc/aarch64-linux-gnu/11/../../../../include/c++/11/bits/alloc_traits.h:535:8
	bl	_ZN9__gnu_cxx13new_allocatorISt13_Rb_tree_nodeINSt7__cxx1112basic_stringIcSt11char_traitsIcESaIcEEEEE7destroyIS7_EEvPT_
	.loc	6 539 2 is_stmt 1               // /usr/bin/../lib/gcc/aarch64-linux-gnu/11/../../../../include/c++/11/bits/alloc_traits.h:539:2
	ldp	x29, x30, [sp, #16]             // 16-byte Folded Reload
	add	sp, sp, #32
	ret
.Ltmp198:
.Lfunc_end63:
	.size	_ZNSt16allocator_traitsISaISt13_Rb_tree_nodeINSt7__cxx1112basic_stringIcSt11char_traitsIcESaIcEEEEEE7destroyIS6_EEvRS8_PT_, .Lfunc_end63-_ZNSt16allocator_traitsISaISt13_Rb_tree_nodeINSt7__cxx1112basic_stringIcSt11char_traitsIcESaIcEEEEEE7destroyIS6_EEvRS8_PT_
	.cfi_endproc
                                        // -- End function
	.section	.text._ZNSt13_Rb_tree_nodeINSt7__cxx1112basic_stringIcSt11char_traitsIcESaIcEEEE9_M_valptrEv,"axG",@progbits,_ZNSt13_Rb_tree_nodeINSt7__cxx1112basic_stringIcSt11char_traitsIcESaIcEEEE9_M_valptrEv,comdat
	.weak	_ZNSt13_Rb_tree_nodeINSt7__cxx1112basic_stringIcSt11char_traitsIcESaIcEEEE9_M_valptrEv // -- Begin function _ZNSt13_Rb_tree_nodeINSt7__cxx1112basic_stringIcSt11char_traitsIcESaIcEEEE9_M_valptrEv
	.p2align	2
	.type	_ZNSt13_Rb_tree_nodeINSt7__cxx1112basic_stringIcSt11char_traitsIcESaIcEEEE9_M_valptrEv,@function
_ZNSt13_Rb_tree_nodeINSt7__cxx1112basic_stringIcSt11char_traitsIcESaIcEEEE9_M_valptrEv: // @_ZNSt13_Rb_tree_nodeINSt7__cxx1112basic_stringIcSt11char_traitsIcESaIcEEEE9_M_valptrEv
.Lfunc_begin64:
	.loc	3 235 0                         // /usr/bin/../lib/gcc/aarch64-linux-gnu/11/../../../../include/c++/11/bits/stl_tree.h:235:0
	.cfi_startproc
// %bb.0:
	sub	sp, sp, #32
	stp	x29, x30, [sp, #16]             // 16-byte Folded Spill
	add	x29, sp, #16
	.cfi_def_cfa w29, 16
	.cfi_offset w30, -8
	.cfi_offset w29, -16
	str	x0, [sp, #8]
	ldr	x8, [sp, #8]
.Ltmp199:
	.loc	3 235 16 prologue_end           // /usr/bin/../lib/gcc/aarch64-linux-gnu/11/../../../../include/c++/11/bits/stl_tree.h:235:16
	add	x0, x8, #32
	.loc	3 235 27 is_stmt 0              // /usr/bin/../lib/gcc/aarch64-linux-gnu/11/../../../../include/c++/11/bits/stl_tree.h:235:27
	bl	_ZN9__gnu_cxx16__aligned_membufINSt7__cxx1112basic_stringIcSt11char_traitsIcESaIcEEEE6_M_ptrEv
	.loc	3 235 9                         // /usr/bin/../lib/gcc/aarch64-linux-gnu/11/../../../../include/c++/11/bits/stl_tree.h:235:9
	ldp	x29, x30, [sp, #16]             // 16-byte Folded Reload
	add	sp, sp, #32
	ret
.Ltmp200:
.Lfunc_end64:
	.size	_ZNSt13_Rb_tree_nodeINSt7__cxx1112basic_stringIcSt11char_traitsIcESaIcEEEE9_M_valptrEv, .Lfunc_end64-_ZNSt13_Rb_tree_nodeINSt7__cxx1112basic_stringIcSt11char_traitsIcESaIcEEEE9_M_valptrEv
	.cfi_endproc
                                        // -- End function
	.section	.text._ZN9__gnu_cxx13new_allocatorISt13_Rb_tree_nodeINSt7__cxx1112basic_stringIcSt11char_traitsIcESaIcEEEEE7destroyIS7_EEvPT_,"axG",@progbits,_ZN9__gnu_cxx13new_allocatorISt13_Rb_tree_nodeINSt7__cxx1112basic_stringIcSt11char_traitsIcESaIcEEEEE7destroyIS7_EEvPT_,comdat
	.weak	_ZN9__gnu_cxx13new_allocatorISt13_Rb_tree_nodeINSt7__cxx1112basic_stringIcSt11char_traitsIcESaIcEEEEE7destroyIS7_EEvPT_ // -- Begin function _ZN9__gnu_cxx13new_allocatorISt13_Rb_tree_nodeINSt7__cxx1112basic_stringIcSt11char_traitsIcESaIcEEEEE7destroyIS7_EEvPT_
	.p2align	2
	.type	_ZN9__gnu_cxx13new_allocatorISt13_Rb_tree_nodeINSt7__cxx1112basic_stringIcSt11char_traitsIcESaIcEEEEE7destroyIS7_EEvPT_,@function
_ZN9__gnu_cxx13new_allocatorISt13_Rb_tree_nodeINSt7__cxx1112basic_stringIcSt11char_traitsIcESaIcEEEEE7destroyIS7_EEvPT_: // @_ZN9__gnu_cxx13new_allocatorISt13_Rb_tree_nodeINSt7__cxx1112basic_stringIcSt11char_traitsIcESaIcEEEEE7destroyIS7_EEvPT_
.Lfunc_begin65:
	.loc	9 168 0 is_stmt 1               // /usr/bin/../lib/gcc/aarch64-linux-gnu/11/../../../../include/c++/11/ext/new_allocator.h:168:0
	.cfi_startproc
// %bb.0:
	sub	sp, sp, #32
	stp	x29, x30, [sp, #16]             // 16-byte Folded Spill
	add	x29, sp, #16
	.cfi_def_cfa w29, 16
	.cfi_offset w30, -8
	.cfi_offset w29, -16
	str	x0, [sp, #8]
	str	x1, [sp]
.Ltmp201:
	.loc	9 168 4 prologue_end            // /usr/bin/../lib/gcc/aarch64-linux-gnu/11/../../../../include/c++/11/ext/new_allocator.h:168:4
	ldr	x0, [sp]
	.loc	9 168 10 is_stmt 0              // /usr/bin/../lib/gcc/aarch64-linux-gnu/11/../../../../include/c++/11/ext/new_allocator.h:168:10
	bl	_ZNSt7__cxx1112basic_stringIcSt11char_traitsIcESaIcEED1Ev
	.loc	9 168 17                        // /usr/bin/../lib/gcc/aarch64-linux-gnu/11/../../../../include/c++/11/ext/new_allocator.h:168:17
	ldp	x29, x30, [sp, #16]             // 16-byte Folded Reload
	add	sp, sp, #32
	ret
.Ltmp202:
.Lfunc_end65:
	.size	_ZN9__gnu_cxx13new_allocatorISt13_Rb_tree_nodeINSt7__cxx1112basic_stringIcSt11char_traitsIcESaIcEEEEE7destroyIS7_EEvPT_, .Lfunc_end65-_ZN9__gnu_cxx13new_allocatorISt13_Rb_tree_nodeINSt7__cxx1112basic_stringIcSt11char_traitsIcESaIcEEEEE7destroyIS7_EEvPT_
	.cfi_endproc
                                        // -- End function
	.section	.text._ZN9__gnu_cxx16__aligned_membufINSt7__cxx1112basic_stringIcSt11char_traitsIcESaIcEEEE6_M_ptrEv,"axG",@progbits,_ZN9__gnu_cxx16__aligned_membufINSt7__cxx1112basic_stringIcSt11char_traitsIcESaIcEEEE6_M_ptrEv,comdat
	.weak	_ZN9__gnu_cxx16__aligned_membufINSt7__cxx1112basic_stringIcSt11char_traitsIcESaIcEEEE6_M_ptrEv // -- Begin function _ZN9__gnu_cxx16__aligned_membufINSt7__cxx1112basic_stringIcSt11char_traitsIcESaIcEEEE6_M_ptrEv
	.p2align	2
	.type	_ZN9__gnu_cxx16__aligned_membufINSt7__cxx1112basic_stringIcSt11char_traitsIcESaIcEEEE6_M_ptrEv,@function
_ZN9__gnu_cxx16__aligned_membufINSt7__cxx1112basic_stringIcSt11char_traitsIcESaIcEEEE6_M_ptrEv: // @_ZN9__gnu_cxx16__aligned_membufINSt7__cxx1112basic_stringIcSt11char_traitsIcESaIcEEEE6_M_ptrEv
.Lfunc_begin66:
	.loc	8 73 0 is_stmt 1                // /usr/bin/../lib/gcc/aarch64-linux-gnu/11/../../../../include/c++/11/ext/aligned_buffer.h:73:0
	.cfi_startproc
// %bb.0:
	sub	sp, sp, #32
	stp	x29, x30, [sp, #16]             // 16-byte Folded Spill
	add	x29, sp, #16
	.cfi_def_cfa w29, 16
	.cfi_offset w30, -8
	.cfi_offset w29, -16
	str	x0, [sp, #8]
	ldr	x0, [sp, #8]
.Ltmp203:
	.loc	8 73 34 prologue_end            // /usr/bin/../lib/gcc/aarch64-linux-gnu/11/../../../../include/c++/11/ext/aligned_buffer.h:73:34
	bl	_ZN9__gnu_cxx16__aligned_membufINSt7__cxx1112basic_stringIcSt11char_traitsIcESaIcEEEE7_M_addrEv
	.loc	8 73 9 is_stmt 0                // /usr/bin/../lib/gcc/aarch64-linux-gnu/11/../../../../include/c++/11/ext/aligned_buffer.h:73:9
	ldp	x29, x30, [sp, #16]             // 16-byte Folded Reload
	add	sp, sp, #32
	ret
.Ltmp204:
.Lfunc_end66:
	.size	_ZN9__gnu_cxx16__aligned_membufINSt7__cxx1112basic_stringIcSt11char_traitsIcESaIcEEEE6_M_ptrEv, .Lfunc_end66-_ZN9__gnu_cxx16__aligned_membufINSt7__cxx1112basic_stringIcSt11char_traitsIcESaIcEEEE6_M_ptrEv
	.cfi_endproc
                                        // -- End function
	.section	.text._ZN9__gnu_cxx16__aligned_membufINSt7__cxx1112basic_stringIcSt11char_traitsIcESaIcEEEE7_M_addrEv,"axG",@progbits,_ZN9__gnu_cxx16__aligned_membufINSt7__cxx1112basic_stringIcSt11char_traitsIcESaIcEEEE7_M_addrEv,comdat
	.weak	_ZN9__gnu_cxx16__aligned_membufINSt7__cxx1112basic_stringIcSt11char_traitsIcESaIcEEEE7_M_addrEv // -- Begin function _ZN9__gnu_cxx16__aligned_membufINSt7__cxx1112basic_stringIcSt11char_traitsIcESaIcEEEE7_M_addrEv
	.p2align	2
	.type	_ZN9__gnu_cxx16__aligned_membufINSt7__cxx1112basic_stringIcSt11char_traitsIcESaIcEEEE7_M_addrEv,@function
_ZN9__gnu_cxx16__aligned_membufINSt7__cxx1112basic_stringIcSt11char_traitsIcESaIcEEEE7_M_addrEv: // @_ZN9__gnu_cxx16__aligned_membufINSt7__cxx1112basic_stringIcSt11char_traitsIcESaIcEEEE7_M_addrEv
.Lfunc_begin67:
	.loc	8 65 0 is_stmt 1                // /usr/bin/../lib/gcc/aarch64-linux-gnu/11/../../../../include/c++/11/ext/aligned_buffer.h:65:0
	.cfi_startproc
// %bb.0:
	sub	sp, sp, #16
	.cfi_def_cfa_offset 16
	str	x0, [sp, #8]
	ldr	x0, [sp, #8]
.Ltmp206:
	.loc	8 65 9 prologue_end             // /usr/bin/../lib/gcc/aarch64-linux-gnu/11/../../../../include/c++/11/ext/aligned_buffer.h:65:9
	add	sp, sp, #16
	ret
.Ltmp207:
.Lfunc_end67:
	.size	_ZN9__gnu_cxx16__aligned_membufINSt7__cxx1112basic_stringIcSt11char_traitsIcESaIcEEEE7_M_addrEv, .Lfunc_end67-_ZN9__gnu_cxx16__aligned_membufINSt7__cxx1112basic_stringIcSt11char_traitsIcESaIcEEEE7_M_addrEv
	.cfi_endproc
                                        // -- End function
	.section	.text._ZNSt16allocator_traitsISaISt13_Rb_tree_nodeINSt7__cxx1112basic_stringIcSt11char_traitsIcESaIcEEEEEE10deallocateERS8_PS7_m,"axG",@progbits,_ZNSt16allocator_traitsISaISt13_Rb_tree_nodeINSt7__cxx1112basic_stringIcSt11char_traitsIcESaIcEEEEEE10deallocateERS8_PS7_m,comdat
	.weak	_ZNSt16allocator_traitsISaISt13_Rb_tree_nodeINSt7__cxx1112basic_stringIcSt11char_traitsIcESaIcEEEEEE10deallocateERS8_PS7_m // -- Begin function _ZNSt16allocator_traitsISaISt13_Rb_tree_nodeINSt7__cxx1112basic_stringIcSt11char_traitsIcESaIcEEEEEE10deallocateERS8_PS7_m
	.p2align	2
	.type	_ZNSt16allocator_traitsISaISt13_Rb_tree_nodeINSt7__cxx1112basic_stringIcSt11char_traitsIcESaIcEEEEEE10deallocateERS8_PS7_m,@function
_ZNSt16allocator_traitsISaISt13_Rb_tree_nodeINSt7__cxx1112basic_stringIcSt11char_traitsIcESaIcEEEEEE10deallocateERS8_PS7_m: // @_ZNSt16allocator_traitsISaISt13_Rb_tree_nodeINSt7__cxx1112basic_stringIcSt11char_traitsIcESaIcEEEEEE10deallocateERS8_PS7_m
.Lfunc_begin68:
	.loc	6 496 0                         // /usr/bin/../lib/gcc/aarch64-linux-gnu/11/../../../../include/c++/11/bits/alloc_traits.h:496:0
	.cfi_startproc
// %bb.0:
	sub	sp, sp, #48
	stp	x29, x30, [sp, #32]             // 16-byte Folded Spill
	add	x29, sp, #32
	.cfi_def_cfa w29, 16
	.cfi_offset w30, -8
	.cfi_offset w29, -16
	stur	x0, [x29, #-8]
	str	x1, [sp, #16]
	str	x2, [sp, #8]
.Ltmp208:
	.loc	6 496 9 prologue_end            // /usr/bin/../lib/gcc/aarch64-linux-gnu/11/../../../../include/c++/11/bits/alloc_traits.h:496:9
	ldur	x0, [x29, #-8]
	.loc	6 496 24 is_stmt 0              // /usr/bin/../lib/gcc/aarch64-linux-gnu/11/../../../../include/c++/11/bits/alloc_traits.h:496:24
	ldr	x1, [sp, #16]
	.loc	6 496 29                        // /usr/bin/../lib/gcc/aarch64-linux-gnu/11/../../../../include/c++/11/bits/alloc_traits.h:496:29
	ldr	x2, [sp, #8]
	.loc	6 496 13                        // /usr/bin/../lib/gcc/aarch64-linux-gnu/11/../../../../include/c++/11/bits/alloc_traits.h:496:13
	bl	_ZN9__gnu_cxx13new_allocatorISt13_Rb_tree_nodeINSt7__cxx1112basic_stringIcSt11char_traitsIcESaIcEEEEE10deallocateEPS8_m
	.loc	6 496 35                        // /usr/bin/../lib/gcc/aarch64-linux-gnu/11/../../../../include/c++/11/bits/alloc_traits.h:496:35
	ldp	x29, x30, [sp, #32]             // 16-byte Folded Reload
	add	sp, sp, #48
	ret
.Ltmp209:
.Lfunc_end68:
	.size	_ZNSt16allocator_traitsISaISt13_Rb_tree_nodeINSt7__cxx1112basic_stringIcSt11char_traitsIcESaIcEEEEEE10deallocateERS8_PS7_m, .Lfunc_end68-_ZNSt16allocator_traitsISaISt13_Rb_tree_nodeINSt7__cxx1112basic_stringIcSt11char_traitsIcESaIcEEEEEE10deallocateERS8_PS7_m
	.cfi_endproc
                                        // -- End function
	.section	.text._ZN9__gnu_cxx13new_allocatorISt13_Rb_tree_nodeINSt7__cxx1112basic_stringIcSt11char_traitsIcESaIcEEEEE10deallocateEPS8_m,"axG",@progbits,_ZN9__gnu_cxx13new_allocatorISt13_Rb_tree_nodeINSt7__cxx1112basic_stringIcSt11char_traitsIcESaIcEEEEE10deallocateEPS8_m,comdat
	.weak	_ZN9__gnu_cxx13new_allocatorISt13_Rb_tree_nodeINSt7__cxx1112basic_stringIcSt11char_traitsIcESaIcEEEEE10deallocateEPS8_m // -- Begin function _ZN9__gnu_cxx13new_allocatorISt13_Rb_tree_nodeINSt7__cxx1112basic_stringIcSt11char_traitsIcESaIcEEEEE10deallocateEPS8_m
	.p2align	2
	.type	_ZN9__gnu_cxx13new_allocatorISt13_Rb_tree_nodeINSt7__cxx1112basic_stringIcSt11char_traitsIcESaIcEEEEE10deallocateEPS8_m,@function
_ZN9__gnu_cxx13new_allocatorISt13_Rb_tree_nodeINSt7__cxx1112basic_stringIcSt11char_traitsIcESaIcEEEEE10deallocateEPS8_m: // @_ZN9__gnu_cxx13new_allocatorISt13_Rb_tree_nodeINSt7__cxx1112basic_stringIcSt11char_traitsIcESaIcEEEEE10deallocateEPS8_m
.Lfunc_begin69:
	.loc	9 133 0 is_stmt 1               // /usr/bin/../lib/gcc/aarch64-linux-gnu/11/../../../../include/c++/11/ext/new_allocator.h:133:0
	.cfi_startproc
// %bb.0:
	sub	sp, sp, #48
	stp	x29, x30, [sp, #32]             // 16-byte Folded Spill
	add	x29, sp, #32
	.cfi_def_cfa w29, 16
	.cfi_offset w30, -8
	.cfi_offset w29, -16
	stur	x0, [x29, #-8]
	str	x1, [sp, #16]
	str	x2, [sp, #8]
.Ltmp210:
	.loc	9 145 20 prologue_end           // /usr/bin/../lib/gcc/aarch64-linux-gnu/11/../../../../include/c++/11/ext/new_allocator.h:145:20
	ldr	x0, [sp, #16]
	.loc	9 145 2 is_stmt 0               // /usr/bin/../lib/gcc/aarch64-linux-gnu/11/../../../../include/c++/11/ext/new_allocator.h:145:2
	bl	_ZdlPv
	.loc	9 150 7 is_stmt 1               // /usr/bin/../lib/gcc/aarch64-linux-gnu/11/../../../../include/c++/11/ext/new_allocator.h:150:7
	ldp	x29, x30, [sp, #32]             // 16-byte Folded Reload
	add	sp, sp, #48
	ret
.Ltmp211:
.Lfunc_end69:
	.size	_ZN9__gnu_cxx13new_allocatorISt13_Rb_tree_nodeINSt7__cxx1112basic_stringIcSt11char_traitsIcESaIcEEEEE10deallocateEPS8_m, .Lfunc_end69-_ZN9__gnu_cxx13new_allocatorISt13_Rb_tree_nodeINSt7__cxx1112basic_stringIcSt11char_traitsIcESaIcEEEEE10deallocateEPS8_m
	.cfi_endproc
                                        // -- End function
	.section	.text._ZNKSt8_Rb_treeINSt7__cxx1112basic_stringIcSt11char_traitsIcESaIcEEES5_St9_IdentityIS5_ESt4lessIS5_ESaIS5_EE9_M_mbeginEv,"axG",@progbits,_ZNKSt8_Rb_treeINSt7__cxx1112basic_stringIcSt11char_traitsIcESaIcEEES5_St9_IdentityIS5_ESt4lessIS5_ESaIS5_EE9_M_mbeginEv,comdat
	.weak	_ZNKSt8_Rb_treeINSt7__cxx1112basic_stringIcSt11char_traitsIcESaIcEEES5_St9_IdentityIS5_ESt4lessIS5_ESaIS5_EE9_M_mbeginEv // -- Begin function _ZNKSt8_Rb_treeINSt7__cxx1112basic_stringIcSt11char_traitsIcESaIcEEES5_St9_IdentityIS5_ESt4lessIS5_ESaIS5_EE9_M_mbeginEv
	.p2align	2
	.type	_ZNKSt8_Rb_treeINSt7__cxx1112basic_stringIcSt11char_traitsIcESaIcEEES5_St9_IdentityIS5_ESt4lessIS5_ESaIS5_EE9_M_mbeginEv,@function
_ZNKSt8_Rb_treeINSt7__cxx1112basic_stringIcSt11char_traitsIcESaIcEEES5_St9_IdentityIS5_ESt4lessIS5_ESaIS5_EE9_M_mbeginEv: // @_ZNKSt8_Rb_treeINSt7__cxx1112basic_stringIcSt11char_traitsIcESaIcEEES5_St9_IdentityIS5_ESt4lessIS5_ESaIS5_EE9_M_mbeginEv
.Lfunc_begin70:
	.loc	3 735 0                         // /usr/bin/../lib/gcc/aarch64-linux-gnu/11/../../../../include/c++/11/bits/stl_tree.h:735:0
	.cfi_startproc
// %bb.0:
	sub	sp, sp, #16
	.cfi_def_cfa_offset 16
	str	x0, [sp, #8]
	ldr	x8, [sp, #8]
.Ltmp213:
	.loc	3 735 64 prologue_end           // /usr/bin/../lib/gcc/aarch64-linux-gnu/11/../../../../include/c++/11/bits/stl_tree.h:735:64
	ldr	x0, [x8, #16]
	.loc	3 735 9 is_stmt 0               // /usr/bin/../lib/gcc/aarch64-linux-gnu/11/../../../../include/c++/11/bits/stl_tree.h:735:9
	add	sp, sp, #16
	ret
.Ltmp214:
.Lfunc_end70:
	.size	_ZNKSt8_Rb_treeINSt7__cxx1112basic_stringIcSt11char_traitsIcESaIcEEES5_St9_IdentityIS5_ESt4lessIS5_ESaIS5_EE9_M_mbeginEv, .Lfunc_end70-_ZNKSt8_Rb_treeINSt7__cxx1112basic_stringIcSt11char_traitsIcESaIcEEES5_St9_IdentityIS5_ESt4lessIS5_ESaIS5_EE9_M_mbeginEv
	.cfi_endproc
                                        // -- End function
	.section	.text._ZNSt15_Rb_tree_header12_M_move_dataERS_,"axG",@progbits,_ZNSt15_Rb_tree_header12_M_move_dataERS_,comdat
	.weak	_ZNSt15_Rb_tree_header12_M_move_dataERS_ // -- Begin function _ZNSt15_Rb_tree_header12_M_move_dataERS_
	.p2align	2
	.type	_ZNSt15_Rb_tree_header12_M_move_dataERS_,@function
_ZNSt15_Rb_tree_header12_M_move_dataERS_: // @_ZNSt15_Rb_tree_header12_M_move_dataERS_
.Lfunc_begin71:
	.loc	3 194 0 is_stmt 1               // /usr/bin/../lib/gcc/aarch64-linux-gnu/11/../../../../include/c++/11/bits/stl_tree.h:194:0
	.cfi_startproc
// %bb.0:
	sub	sp, sp, #32
	stp	x29, x30, [sp, #16]             // 16-byte Folded Spill
	add	x29, sp, #16
	.cfi_def_cfa w29, 16
	.cfi_offset w30, -8
	.cfi_offset w29, -16
	str	x0, [sp, #8]
	str	x1, [sp]
	ldr	x9, [sp, #8]
.Ltmp215:
	.loc	3 195 28 prologue_end           // /usr/bin/../lib/gcc/aarch64-linux-gnu/11/../../../../include/c++/11/bits/stl_tree.h:195:28
	ldr	x8, [sp]
	.loc	3 195 45 is_stmt 0              // /usr/bin/../lib/gcc/aarch64-linux-gnu/11/../../../../include/c++/11/bits/stl_tree.h:195:45
	ldr	w8, [x8]
	.loc	3 195 26                        // /usr/bin/../lib/gcc/aarch64-linux-gnu/11/../../../../include/c++/11/bits/stl_tree.h:195:26
	str	w8, [x9]
	.loc	3 196 29 is_stmt 1              // /usr/bin/../lib/gcc/aarch64-linux-gnu/11/../../../../include/c++/11/bits/stl_tree.h:196:29
	ldr	x8, [sp]
	.loc	3 196 46 is_stmt 0              // /usr/bin/../lib/gcc/aarch64-linux-gnu/11/../../../../include/c++/11/bits/stl_tree.h:196:46
	ldr	x8, [x8, #8]
	.loc	3 196 27                        // /usr/bin/../lib/gcc/aarch64-linux-gnu/11/../../../../include/c++/11/bits/stl_tree.h:196:27
	str	x8, [x9, #8]
	.loc	3 197 27 is_stmt 1              // /usr/bin/../lib/gcc/aarch64-linux-gnu/11/../../../../include/c++/11/bits/stl_tree.h:197:27
	ldr	x8, [sp]
	.loc	3 197 44 is_stmt 0              // /usr/bin/../lib/gcc/aarch64-linux-gnu/11/../../../../include/c++/11/bits/stl_tree.h:197:44
	ldr	x8, [x8, #16]
	.loc	3 197 25                        // /usr/bin/../lib/gcc/aarch64-linux-gnu/11/../../../../include/c++/11/bits/stl_tree.h:197:25
	str	x8, [x9, #16]
	.loc	3 198 28 is_stmt 1              // /usr/bin/../lib/gcc/aarch64-linux-gnu/11/../../../../include/c++/11/bits/stl_tree.h:198:28
	ldr	x8, [sp]
	.loc	3 198 45 is_stmt 0              // /usr/bin/../lib/gcc/aarch64-linux-gnu/11/../../../../include/c++/11/bits/stl_tree.h:198:45
	ldr	x8, [x8, #24]
	.loc	3 198 26                        // /usr/bin/../lib/gcc/aarch64-linux-gnu/11/../../../../include/c++/11/bits/stl_tree.h:198:26
	str	x8, [x9, #24]
	.loc	3 199 17 is_stmt 1              // /usr/bin/../lib/gcc/aarch64-linux-gnu/11/../../../../include/c++/11/bits/stl_tree.h:199:17
	ldr	x10, [x9, #8]
	.loc	3 199 38 is_stmt 0              // /usr/bin/../lib/gcc/aarch64-linux-gnu/11/../../../../include/c++/11/bits/stl_tree.h:199:38
	mov	x8, x9
	str	x8, [x10, #8]
	.loc	3 200 23 is_stmt 1              // /usr/bin/../lib/gcc/aarch64-linux-gnu/11/../../../../include/c++/11/bits/stl_tree.h:200:23
	ldr	x8, [sp]
	.loc	3 200 30 is_stmt 0              // /usr/bin/../lib/gcc/aarch64-linux-gnu/11/../../../../include/c++/11/bits/stl_tree.h:200:30
	ldr	x8, [x8, #32]
	.loc	3 200 21                        // /usr/bin/../lib/gcc/aarch64-linux-gnu/11/../../../../include/c++/11/bits/stl_tree.h:200:21
	str	x8, [x9, #32]
	.loc	3 202 7 is_stmt 1               // /usr/bin/../lib/gcc/aarch64-linux-gnu/11/../../../../include/c++/11/bits/stl_tree.h:202:7
	ldr	x0, [sp]
	.loc	3 202 14 is_stmt 0              // /usr/bin/../lib/gcc/aarch64-linux-gnu/11/../../../../include/c++/11/bits/stl_tree.h:202:14
	bl	_ZNSt15_Rb_tree_header8_M_resetEv
	.loc	3 203 5 is_stmt 1               // /usr/bin/../lib/gcc/aarch64-linux-gnu/11/../../../../include/c++/11/bits/stl_tree.h:203:5
	ldp	x29, x30, [sp, #16]             // 16-byte Folded Reload
	add	sp, sp, #32
	ret
.Ltmp216:
.Lfunc_end71:
	.size	_ZNSt15_Rb_tree_header12_M_move_dataERS_, .Lfunc_end71-_ZNSt15_Rb_tree_header12_M_move_dataERS_
	.cfi_endproc
                                        // -- End function
	.section	.text._ZSt18__do_alloc_on_moveISaISt13_Rb_tree_nodeINSt7__cxx1112basic_stringIcSt11char_traitsIcESaIcEEEEEEvRT_SA_St17integral_constantIbLb1EE,"axG",@progbits,_ZSt18__do_alloc_on_moveISaISt13_Rb_tree_nodeINSt7__cxx1112basic_stringIcSt11char_traitsIcESaIcEEEEEEvRT_SA_St17integral_constantIbLb1EE,comdat
	.weak	_ZSt18__do_alloc_on_moveISaISt13_Rb_tree_nodeINSt7__cxx1112basic_stringIcSt11char_traitsIcESaIcEEEEEEvRT_SA_St17integral_constantIbLb1EE // -- Begin function _ZSt18__do_alloc_on_moveISaISt13_Rb_tree_nodeINSt7__cxx1112basic_stringIcSt11char_traitsIcESaIcEEEEEEvRT_SA_St17integral_constantIbLb1EE
	.p2align	2
	.type	_ZSt18__do_alloc_on_moveISaISt13_Rb_tree_nodeINSt7__cxx1112basic_stringIcSt11char_traitsIcESaIcEEEEEEvRT_SA_St17integral_constantIbLb1EE,@function
_ZSt18__do_alloc_on_moveISaISt13_Rb_tree_nodeINSt7__cxx1112basic_stringIcSt11char_traitsIcESaIcEEEEEEvRT_SA_St17integral_constantIbLb1EE: // @_ZSt18__do_alloc_on_moveISaISt13_Rb_tree_nodeINSt7__cxx1112basic_stringIcSt11char_traitsIcESaIcEEEEEEvRT_SA_St17integral_constantIbLb1EE
.Lfunc_begin72:
	.loc	6 701 0                         // /usr/bin/../lib/gcc/aarch64-linux-gnu/11/../../../../include/c++/11/bits/alloc_traits.h:701:0
	.cfi_startproc
// %bb.0:
	sub	sp, sp, #48
	stp	x29, x30, [sp, #32]             // 16-byte Folded Spill
	add	x29, sp, #32
	.cfi_def_cfa w29, 16
	.cfi_offset w30, -8
	.cfi_offset w29, -16
	sturb	w2, [x29, #-1]
	str	x0, [sp, #16]
	str	x1, [sp, #8]
.Ltmp217:
	.loc	6 701 25 prologue_end           // /usr/bin/../lib/gcc/aarch64-linux-gnu/11/../../../../include/c++/11/bits/alloc_traits.h:701:25
	ldr	x0, [sp, #8]
	.loc	6 701 15 is_stmt 0              // /usr/bin/../lib/gcc/aarch64-linux-gnu/11/../../../../include/c++/11/bits/alloc_traits.h:701:15
	bl	_ZSt4moveIRSaISt13_Rb_tree_nodeINSt7__cxx1112basic_stringIcSt11char_traitsIcESaIcEEEEEEONSt16remove_referenceIT_E4typeEOSB_
	.loc	6 701 33                        // /usr/bin/../lib/gcc/aarch64-linux-gnu/11/../../../../include/c++/11/bits/alloc_traits.h:701:33
	ldp	x29, x30, [sp, #32]             // 16-byte Folded Reload
	add	sp, sp, #48
	ret
.Ltmp218:
.Lfunc_end72:
	.size	_ZSt18__do_alloc_on_moveISaISt13_Rb_tree_nodeINSt7__cxx1112basic_stringIcSt11char_traitsIcESaIcEEEEEEvRT_SA_St17integral_constantIbLb1EE, .Lfunc_end72-_ZSt18__do_alloc_on_moveISaISt13_Rb_tree_nodeINSt7__cxx1112basic_stringIcSt11char_traitsIcESaIcEEEEEEvRT_SA_St17integral_constantIbLb1EE
	.cfi_endproc
                                        // -- End function
	.section	.text._ZSt4moveIRSaISt13_Rb_tree_nodeINSt7__cxx1112basic_stringIcSt11char_traitsIcESaIcEEEEEEONSt16remove_referenceIT_E4typeEOSB_,"axG",@progbits,_ZSt4moveIRSaISt13_Rb_tree_nodeINSt7__cxx1112basic_stringIcSt11char_traitsIcESaIcEEEEEEONSt16remove_referenceIT_E4typeEOSB_,comdat
	.weak	_ZSt4moveIRSaISt13_Rb_tree_nodeINSt7__cxx1112basic_stringIcSt11char_traitsIcESaIcEEEEEEONSt16remove_referenceIT_E4typeEOSB_ // -- Begin function _ZSt4moveIRSaISt13_Rb_tree_nodeINSt7__cxx1112basic_stringIcSt11char_traitsIcESaIcEEEEEEONSt16remove_referenceIT_E4typeEOSB_
	.p2align	2
	.type	_ZSt4moveIRSaISt13_Rb_tree_nodeINSt7__cxx1112basic_stringIcSt11char_traitsIcESaIcEEEEEEONSt16remove_referenceIT_E4typeEOSB_,@function
_ZSt4moveIRSaISt13_Rb_tree_nodeINSt7__cxx1112basic_stringIcSt11char_traitsIcESaIcEEEEEEONSt16remove_referenceIT_E4typeEOSB_: // @_ZSt4moveIRSaISt13_Rb_tree_nodeINSt7__cxx1112basic_stringIcSt11char_traitsIcESaIcEEEEEEONSt16remove_referenceIT_E4typeEOSB_
.Lfunc_begin73:
	.loc	61 105 0 is_stmt 1              // /usr/bin/../lib/gcc/aarch64-linux-gnu/11/../../../../include/c++/11/bits/move.h:105:0
	.cfi_startproc
// %bb.0:
	sub	sp, sp, #16
	.cfi_def_cfa_offset 16
	str	x0, [sp, #8]
.Ltmp220:
	.loc	61 105 71 prologue_end          // /usr/bin/../lib/gcc/aarch64-linux-gnu/11/../../../../include/c++/11/bits/move.h:105:71
	ldr	x0, [sp, #8]
	.loc	61 105 7 is_stmt 0              // /usr/bin/../lib/gcc/aarch64-linux-gnu/11/../../../../include/c++/11/bits/move.h:105:7
	add	sp, sp, #16
	ret
.Ltmp221:
.Lfunc_end73:
	.size	_ZSt4moveIRSaISt13_Rb_tree_nodeINSt7__cxx1112basic_stringIcSt11char_traitsIcESaIcEEEEEEONSt16remove_referenceIT_E4typeEOSB_, .Lfunc_end73-_ZSt4moveIRSaISt13_Rb_tree_nodeINSt7__cxx1112basic_stringIcSt11char_traitsIcESaIcEEEEEEONSt16remove_referenceIT_E4typeEOSB_
	.cfi_endproc
                                        // -- End function
	.section	.text._ZNSt3setINSt7__cxx1112basic_stringIcSt11char_traitsIcESaIcEEESt4lessIS5_ESaIS5_EED2Ev,"axG",@progbits,_ZNSt3setINSt7__cxx1112basic_stringIcSt11char_traitsIcESaIcEEESt4lessIS5_ESaIS5_EED2Ev,comdat
	.weak	_ZNSt3setINSt7__cxx1112basic_stringIcSt11char_traitsIcESaIcEEESt4lessIS5_ESaIS5_EED2Ev // -- Begin function _ZNSt3setINSt7__cxx1112basic_stringIcSt11char_traitsIcESaIcEEESt4lessIS5_ESaIS5_EED2Ev
	.p2align	2
	.type	_ZNSt3setINSt7__cxx1112basic_stringIcSt11char_traitsIcESaIcEEESt4lessIS5_ESaIS5_EED2Ev,@function
_ZNSt3setINSt7__cxx1112basic_stringIcSt11char_traitsIcESaIcEEESt4lessIS5_ESaIS5_EED2Ev: // @_ZNSt3setINSt7__cxx1112basic_stringIcSt11char_traitsIcESaIcEEESt4lessIS5_ESaIS5_EED2Ev
.Lfunc_begin74:
	.loc	15 281 0 is_stmt 1              // /usr/bin/../lib/gcc/aarch64-linux-gnu/11/../../../../include/c++/11/bits/stl_set.h:281:0
	.cfi_startproc
// %bb.0:
	sub	sp, sp, #32
	stp	x29, x30, [sp, #16]             // 16-byte Folded Spill
	add	x29, sp, #16
	.cfi_def_cfa w29, 16
	.cfi_offset w30, -8
	.cfi_offset w29, -16
	str	x0, [sp, #8]
	ldr	x0, [sp, #8]
.Ltmp222:
	.loc	15 281 22 prologue_end          // /usr/bin/../lib/gcc/aarch64-linux-gnu/11/../../../../include/c++/11/bits/stl_set.h:281:22
	bl	_ZNSt8_Rb_treeINSt7__cxx1112basic_stringIcSt11char_traitsIcESaIcEEES5_St9_IdentityIS5_ESt4lessIS5_ESaIS5_EED2Ev
.Ltmp223:
	.loc	15 281 22 is_stmt 0             // /usr/bin/../lib/gcc/aarch64-linux-gnu/11/../../../../include/c++/11/bits/stl_set.h:281:22
	ldp	x29, x30, [sp, #16]             // 16-byte Folded Reload
	add	sp, sp, #32
	ret
.Ltmp224:
.Lfunc_end74:
	.size	_ZNSt3setINSt7__cxx1112basic_stringIcSt11char_traitsIcESaIcEEESt4lessIS5_ESaIS5_EED2Ev, .Lfunc_end74-_ZNSt3setINSt7__cxx1112basic_stringIcSt11char_traitsIcESaIcEEESt4lessIS5_ESaIS5_EED2Ev
	.cfi_endproc
                                        // -- End function
	.section	.text._ZNSt8_Rb_treeINSt7__cxx1112basic_stringIcSt11char_traitsIcESaIcEEES5_St9_IdentityIS5_ESt4lessIS5_ESaIS5_EED2Ev,"axG",@progbits,_ZNSt8_Rb_treeINSt7__cxx1112basic_stringIcSt11char_traitsIcESaIcEEES5_St9_IdentityIS5_ESt4lessIS5_ESaIS5_EED2Ev,comdat
	.weak	_ZNSt8_Rb_treeINSt7__cxx1112basic_stringIcSt11char_traitsIcESaIcEEES5_St9_IdentityIS5_ESt4lessIS5_ESaIS5_EED2Ev // -- Begin function _ZNSt8_Rb_treeINSt7__cxx1112basic_stringIcSt11char_traitsIcESaIcEEES5_St9_IdentityIS5_ESt4lessIS5_ESaIS5_EED2Ev
	.p2align	2
	.type	_ZNSt8_Rb_treeINSt7__cxx1112basic_stringIcSt11char_traitsIcESaIcEEES5_St9_IdentityIS5_ESt4lessIS5_ESaIS5_EED2Ev,@function
_ZNSt8_Rb_treeINSt7__cxx1112basic_stringIcSt11char_traitsIcESaIcEEES5_St9_IdentityIS5_ESt4lessIS5_ESaIS5_EED2Ev: // @_ZNSt8_Rb_treeINSt7__cxx1112basic_stringIcSt11char_traitsIcESaIcEEES5_St9_IdentityIS5_ESt4lessIS5_ESaIS5_EED2Ev
.Lfunc_begin75:
	.loc	3 984 0 is_stmt 1               // /usr/bin/../lib/gcc/aarch64-linux-gnu/11/../../../../include/c++/11/bits/stl_tree.h:984:0
	.cfi_startproc
	.cfi_personality 156, DW.ref.__gxx_personality_v0
	.cfi_lsda 28, .Lexception9
// %bb.0:
	sub	sp, sp, #48
	stp	x29, x30, [sp, #32]             // 16-byte Folded Spill
	add	x29, sp, #32
	.cfi_def_cfa w29, 16
	.cfi_offset w30, -8
	.cfi_offset w29, -16
	stur	x0, [x29, #-8]
	ldur	x0, [x29, #-8]
	str	x0, [sp]                        // 8-byte Folded Spill
.Ltmp228:
	.loc	3 984 18 prologue_end           // /usr/bin/../lib/gcc/aarch64-linux-gnu/11/../../../../include/c++/11/bits/stl_tree.h:984:18
	bl	_ZNSt8_Rb_treeINSt7__cxx1112basic_stringIcSt11char_traitsIcESaIcEEES5_St9_IdentityIS5_ESt4lessIS5_ESaIS5_EE8_M_beginEv
	mov	x1, x0
	ldr	x0, [sp]                        // 8-byte Folded Reload
.Ltmp225:
	.loc	3 984 9 is_stmt 0               // /usr/bin/../lib/gcc/aarch64-linux-gnu/11/../../../../include/c++/11/bits/stl_tree.h:984:9
	bl	_ZNSt8_Rb_treeINSt7__cxx1112basic_stringIcSt11char_traitsIcESaIcEEES5_St9_IdentityIS5_ESt4lessIS5_ESaIS5_EE8_M_eraseEPSt13_Rb_tree_nodeIS5_E
.Ltmp226:
	b	.LBB75_1
.LBB75_1:
	.loc	3 0 9                           // /usr/bin/../lib/gcc/aarch64-linux-gnu/11/../../../../include/c++/11/bits/stl_tree.h:0:9
	ldr	x0, [sp]                        // 8-byte Folded Reload
	.loc	3 984 31                        // /usr/bin/../lib/gcc/aarch64-linux-gnu/11/../../../../include/c++/11/bits/stl_tree.h:984:31
	bl	_ZNSt8_Rb_treeINSt7__cxx1112basic_stringIcSt11char_traitsIcESaIcEEES5_St9_IdentityIS5_ESt4lessIS5_ESaIS5_EE13_Rb_tree_implIS9_Lb1EED2Ev
.Ltmp229:
	.loc	3 984 31                        // /usr/bin/../lib/gcc/aarch64-linux-gnu/11/../../../../include/c++/11/bits/stl_tree.h:984:31
	ldp	x29, x30, [sp, #32]             // 16-byte Folded Reload
	add	sp, sp, #48
	ret
.LBB75_2:
.Ltmp227:
.Ltmp230:
	.loc	3 984 31                        // /usr/bin/../lib/gcc/aarch64-linux-gnu/11/../../../../include/c++/11/bits/stl_tree.h:984:31
	mov	x9, x0
	ldr	x0, [sp]                        // 8-byte Folded Reload
	mov	w8, w1
	str	x9, [sp, #16]
	str	w8, [sp, #12]
	bl	_ZNSt8_Rb_treeINSt7__cxx1112basic_stringIcSt11char_traitsIcESaIcEEES5_St9_IdentityIS5_ESt4lessIS5_ESaIS5_EE13_Rb_tree_implIS9_Lb1EED2Ev
	b	.LBB75_3
.LBB75_3:
	ldr	x0, [sp, #16]
	bl	__clang_call_terminate
.Ltmp231:
.Lfunc_end75:
	.size	_ZNSt8_Rb_treeINSt7__cxx1112basic_stringIcSt11char_traitsIcESaIcEEES5_St9_IdentityIS5_ESt4lessIS5_ESaIS5_EED2Ev, .Lfunc_end75-_ZNSt8_Rb_treeINSt7__cxx1112basic_stringIcSt11char_traitsIcESaIcEEES5_St9_IdentityIS5_ESt4lessIS5_ESaIS5_EED2Ev
	.cfi_endproc
	.section	.gcc_except_table._ZNSt8_Rb_treeINSt7__cxx1112basic_stringIcSt11char_traitsIcESaIcEEES5_St9_IdentityIS5_ESt4lessIS5_ESaIS5_EED2Ev,"aG",@progbits,_ZNSt8_Rb_treeINSt7__cxx1112basic_stringIcSt11char_traitsIcESaIcEEES5_St9_IdentityIS5_ESt4lessIS5_ESaIS5_EED2Ev,comdat
	.p2align	2
GCC_except_table75:
.Lexception9:
	.byte	255                             // @LPStart Encoding = omit
	.byte	156                             // @TType Encoding = indirect pcrel sdata8
	.uleb128 .Lttbase6-.Lttbaseref6
.Lttbaseref6:
	.byte	1                               // Call site Encoding = uleb128
	.uleb128 .Lcst_end9-.Lcst_begin9
.Lcst_begin9:
	.uleb128 .Ltmp225-.Lfunc_begin75        // >> Call Site 1 <<
	.uleb128 .Ltmp226-.Ltmp225              //   Call between .Ltmp225 and .Ltmp226
	.uleb128 .Ltmp227-.Lfunc_begin75        //     jumps to .Ltmp227
	.byte	1                               //   On action: 1
.Lcst_end9:
	.byte	1                               // >> Action Record 1 <<
                                        //   Catch TypeInfo 1
	.byte	0                               //   No further actions
	.p2align	2
                                        // >> Catch TypeInfos <<
	.xword	0                               // TypeInfo 1
.Lttbase6:
	.p2align	2
                                        // -- End function
	.section	.text._ZNSt8_Rb_treeINSt7__cxx1112basic_stringIcSt11char_traitsIcESaIcEEES5_St9_IdentityIS5_ESt4lessIS5_ESaIS5_EE13_Rb_tree_implIS9_Lb1EED2Ev,"axG",@progbits,_ZNSt8_Rb_treeINSt7__cxx1112basic_stringIcSt11char_traitsIcESaIcEEES5_St9_IdentityIS5_ESt4lessIS5_ESaIS5_EE13_Rb_tree_implIS9_Lb1EED2Ev,comdat
	.weak	_ZNSt8_Rb_treeINSt7__cxx1112basic_stringIcSt11char_traitsIcESaIcEEES5_St9_IdentityIS5_ESt4lessIS5_ESaIS5_EE13_Rb_tree_implIS9_Lb1EED2Ev // -- Begin function _ZNSt8_Rb_treeINSt7__cxx1112basic_stringIcSt11char_traitsIcESaIcEEES5_St9_IdentityIS5_ESt4lessIS5_ESaIS5_EE13_Rb_tree_implIS9_Lb1EED2Ev
	.p2align	2
	.type	_ZNSt8_Rb_treeINSt7__cxx1112basic_stringIcSt11char_traitsIcESaIcEEES5_St9_IdentityIS5_ESt4lessIS5_ESaIS5_EE13_Rb_tree_implIS9_Lb1EED2Ev,@function
_ZNSt8_Rb_treeINSt7__cxx1112basic_stringIcSt11char_traitsIcESaIcEEES5_St9_IdentityIS5_ESt4lessIS5_ESaIS5_EE13_Rb_tree_implIS9_Lb1EED2Ev: // @_ZNSt8_Rb_treeINSt7__cxx1112basic_stringIcSt11char_traitsIcESaIcEEES5_St9_IdentityIS5_ESt4lessIS5_ESaIS5_EE13_Rb_tree_implIS9_Lb1EED2Ev
.Lfunc_begin76:
	.loc	3 660 0 is_stmt 1               // /usr/bin/../lib/gcc/aarch64-linux-gnu/11/../../../../include/c++/11/bits/stl_tree.h:660:0
	.cfi_startproc
// %bb.0:
	sub	sp, sp, #32
	stp	x29, x30, [sp, #16]             // 16-byte Folded Spill
	add	x29, sp, #16
	.cfi_def_cfa w29, 16
	.cfi_offset w30, -8
	.cfi_offset w29, -16
	str	x0, [sp, #8]
	ldr	x0, [sp, #8]
.Ltmp232:
	.loc	3 660 9 prologue_end            // /usr/bin/../lib/gcc/aarch64-linux-gnu/11/../../../../include/c++/11/bits/stl_tree.h:660:9
	bl	_ZNSaISt13_Rb_tree_nodeINSt7__cxx1112basic_stringIcSt11char_traitsIcESaIcEEEEED2Ev
.Ltmp233:
	.loc	3 660 9 is_stmt 0               // /usr/bin/../lib/gcc/aarch64-linux-gnu/11/../../../../include/c++/11/bits/stl_tree.h:660:9
	ldp	x29, x30, [sp, #16]             // 16-byte Folded Reload
	add	sp, sp, #32
	ret
.Ltmp234:
.Lfunc_end76:
	.size	_ZNSt8_Rb_treeINSt7__cxx1112basic_stringIcSt11char_traitsIcESaIcEEES5_St9_IdentityIS5_ESt4lessIS5_ESaIS5_EE13_Rb_tree_implIS9_Lb1EED2Ev, .Lfunc_end76-_ZNSt8_Rb_treeINSt7__cxx1112basic_stringIcSt11char_traitsIcESaIcEEES5_St9_IdentityIS5_ESt4lessIS5_ESaIS5_EE13_Rb_tree_implIS9_Lb1EED2Ev
	.cfi_endproc
                                        // -- End function
	.section	.text._ZNSaISt13_Rb_tree_nodeINSt7__cxx1112basic_stringIcSt11char_traitsIcESaIcEEEEED2Ev,"axG",@progbits,_ZNSaISt13_Rb_tree_nodeINSt7__cxx1112basic_stringIcSt11char_traitsIcESaIcEEEEED2Ev,comdat
	.weak	_ZNSaISt13_Rb_tree_nodeINSt7__cxx1112basic_stringIcSt11char_traitsIcESaIcEEEEED2Ev // -- Begin function _ZNSaISt13_Rb_tree_nodeINSt7__cxx1112basic_stringIcSt11char_traitsIcESaIcEEEEED2Ev
	.p2align	2
	.type	_ZNSaISt13_Rb_tree_nodeINSt7__cxx1112basic_stringIcSt11char_traitsIcESaIcEEEEED2Ev,@function
_ZNSaISt13_Rb_tree_nodeINSt7__cxx1112basic_stringIcSt11char_traitsIcESaIcEEEEED2Ev: // @_ZNSaISt13_Rb_tree_nodeINSt7__cxx1112basic_stringIcSt11char_traitsIcESaIcEEEEED2Ev
.Lfunc_begin77:
	.loc	11 174 0 is_stmt 1              // /usr/bin/../lib/gcc/aarch64-linux-gnu/11/../../../../include/c++/11/bits/allocator.h:174:0
	.cfi_startproc
// %bb.0:
	sub	sp, sp, #32
	stp	x29, x30, [sp, #16]             // 16-byte Folded Spill
	add	x29, sp, #16
	.cfi_def_cfa w29, 16
	.cfi_offset w30, -8
	.cfi_offset w29, -16
	str	x0, [sp, #8]
	ldr	x0, [sp, #8]
.Ltmp235:
	.loc	11 174 31 prologue_end          // /usr/bin/../lib/gcc/aarch64-linux-gnu/11/../../../../include/c++/11/bits/allocator.h:174:31
	bl	_ZN9__gnu_cxx13new_allocatorISt13_Rb_tree_nodeINSt7__cxx1112basic_stringIcSt11char_traitsIcESaIcEEEEED2Ev
.Ltmp236:
	.loc	11 174 31 is_stmt 0             // /usr/bin/../lib/gcc/aarch64-linux-gnu/11/../../../../include/c++/11/bits/allocator.h:174:31
	ldp	x29, x30, [sp, #16]             // 16-byte Folded Reload
	add	sp, sp, #32
	ret
.Ltmp237:
.Lfunc_end77:
	.size	_ZNSaISt13_Rb_tree_nodeINSt7__cxx1112basic_stringIcSt11char_traitsIcESaIcEEEEED2Ev, .Lfunc_end77-_ZNSaISt13_Rb_tree_nodeINSt7__cxx1112basic_stringIcSt11char_traitsIcESaIcEEEEED2Ev
	.cfi_endproc
                                        // -- End function
	.section	.text._ZN9__gnu_cxx13new_allocatorISt13_Rb_tree_nodeINSt7__cxx1112basic_stringIcSt11char_traitsIcESaIcEEEEED2Ev,"axG",@progbits,_ZN9__gnu_cxx13new_allocatorISt13_Rb_tree_nodeINSt7__cxx1112basic_stringIcSt11char_traitsIcESaIcEEEEED2Ev,comdat
	.weak	_ZN9__gnu_cxx13new_allocatorISt13_Rb_tree_nodeINSt7__cxx1112basic_stringIcSt11char_traitsIcESaIcEEEEED2Ev // -- Begin function _ZN9__gnu_cxx13new_allocatorISt13_Rb_tree_nodeINSt7__cxx1112basic_stringIcSt11char_traitsIcESaIcEEEEED2Ev
	.p2align	2
	.type	_ZN9__gnu_cxx13new_allocatorISt13_Rb_tree_nodeINSt7__cxx1112basic_stringIcSt11char_traitsIcESaIcEEEEED2Ev,@function
_ZN9__gnu_cxx13new_allocatorISt13_Rb_tree_nodeINSt7__cxx1112basic_stringIcSt11char_traitsIcESaIcEEEEED2Ev: // @_ZN9__gnu_cxx13new_allocatorISt13_Rb_tree_nodeINSt7__cxx1112basic_stringIcSt11char_traitsIcESaIcEEEEED2Ev
.Lfunc_begin78:
	.loc	9 89 0 is_stmt 1                // /usr/bin/../lib/gcc/aarch64-linux-gnu/11/../../../../include/c++/11/ext/new_allocator.h:89:0
	.cfi_startproc
// %bb.0:
	sub	sp, sp, #16
	.cfi_def_cfa_offset 16
	str	x0, [sp, #8]
.Ltmp239:
	.loc	9 89 35 prologue_end            // /usr/bin/../lib/gcc/aarch64-linux-gnu/11/../../../../include/c++/11/ext/new_allocator.h:89:35
	add	sp, sp, #16
	ret
.Ltmp240:
.Lfunc_end78:
	.size	_ZN9__gnu_cxx13new_allocatorISt13_Rb_tree_nodeINSt7__cxx1112basic_stringIcSt11char_traitsIcESaIcEEEEED2Ev, .Lfunc_end78-_ZN9__gnu_cxx13new_allocatorISt13_Rb_tree_nodeINSt7__cxx1112basic_stringIcSt11char_traitsIcESaIcEEEEED2Ev
	.cfi_endproc
                                        // -- End function
	.section	.text._ZN4rust10cxxbridge13VecINS0_6StringEED2Ev,"axG",@progbits,_ZN4rust10cxxbridge13VecINS0_6StringEED2Ev,comdat
	.weak	_ZN4rust10cxxbridge13VecINS0_6StringEED2Ev // -- Begin function _ZN4rust10cxxbridge13VecINS0_6StringEED2Ev
	.p2align	2
	.type	_ZN4rust10cxxbridge13VecINS0_6StringEED2Ev,@function
_ZN4rust10cxxbridge13VecINS0_6StringEED2Ev: // @_ZN4rust10cxxbridge13VecINS0_6StringEED2Ev
.Lfunc_begin79:
	.loc	59 849 0                        // target/cxxbridge/rust/cxx.h:849:0
	.cfi_startproc
// %bb.0:
	sub	sp, sp, #32
	stp	x29, x30, [sp, #16]             // 16-byte Folded Spill
	add	x29, sp, #16
	.cfi_def_cfa w29, 16
	.cfi_offset w30, -8
	.cfi_offset w29, -16
	str	x0, [sp, #8]
	ldr	x0, [sp, #8]
.Ltmp241:
	.loc	59 850 9 prologue_end           // target/cxxbridge/rust/cxx.h:850:9
	bl	_ZN4rust10cxxbridge13VecINS0_6StringEE4dropEv
.Ltmp242:
	.loc	59 851 1                        // target/cxxbridge/rust/cxx.h:851:1
	ldp	x29, x30, [sp, #16]             // 16-byte Folded Reload
	add	sp, sp, #32
	ret
.Ltmp243:
.Lfunc_end79:
	.size	_ZN4rust10cxxbridge13VecINS0_6StringEED2Ev, .Lfunc_end79-_ZN4rust10cxxbridge13VecINS0_6StringEED2Ev
	.cfi_endproc
                                        // -- End function
	.section	.text._ZNSt12__shared_ptrIN3org9blobstore15BlobstoreClient4implELN9__gnu_cxx12_Lock_policyE2EEC2IS3_vEEPT_,"axG",@progbits,_ZNSt12__shared_ptrIN3org9blobstore15BlobstoreClient4implELN9__gnu_cxx12_Lock_policyE2EEC2IS3_vEEPT_,comdat
	.weak	_ZNSt12__shared_ptrIN3org9blobstore15BlobstoreClient4implELN9__gnu_cxx12_Lock_policyE2EEC2IS3_vEEPT_ // -- Begin function _ZNSt12__shared_ptrIN3org9blobstore15BlobstoreClient4implELN9__gnu_cxx12_Lock_policyE2EEC2IS3_vEEPT_
	.p2align	2
	.type	_ZNSt12__shared_ptrIN3org9blobstore15BlobstoreClient4implELN9__gnu_cxx12_Lock_policyE2EEC2IS3_vEEPT_,@function
_ZNSt12__shared_ptrIN3org9blobstore15BlobstoreClient4implELN9__gnu_cxx12_Lock_policyE2EEC2IS3_vEEPT_: // @_ZNSt12__shared_ptrIN3org9blobstore15BlobstoreClient4implELN9__gnu_cxx12_Lock_policyE2EEC2IS3_vEEPT_
.Lfunc_begin80:
	.loc	22 1100 0                       // /usr/bin/../lib/gcc/aarch64-linux-gnu/11/../../../../include/c++/11/bits/shared_ptr_base.h:1100:0
	.cfi_startproc
// %bb.0:
	sub	sp, sp, #48
	stp	x29, x30, [sp, #32]             // 16-byte Folded Spill
	add	x29, sp, #32
	.cfi_def_cfa w29, 16
	.cfi_offset w30, -8
	.cfi_offset w29, -16
	stur	x0, [x29, #-8]
	str	x1, [sp, #16]
	ldur	x8, [x29, #-8]
	str	x8, [sp]                        // 8-byte Folded Spill
.Ltmp244:
	.loc	22 1099 11 prologue_end         // /usr/bin/../lib/gcc/aarch64-linux-gnu/11/../../../../include/c++/11/bits/shared_ptr_base.h:1099:11
	ldr	x9, [sp, #16]
	.loc	22 1099 4 is_stmt 0             // /usr/bin/../lib/gcc/aarch64-linux-gnu/11/../../../../include/c++/11/bits/shared_ptr_base.h:1099:4
	str	x9, [x8]
	.loc	22 1099 17                      // /usr/bin/../lib/gcc/aarch64-linux-gnu/11/../../../../include/c++/11/bits/shared_ptr_base.h:1099:17
	add	x0, x8, #8
	.loc	22 1099 29                      // /usr/bin/../lib/gcc/aarch64-linux-gnu/11/../../../../include/c++/11/bits/shared_ptr_base.h:1099:29
	ldr	x1, [sp, #16]
	.loc	22 1099 17                      // /usr/bin/../lib/gcc/aarch64-linux-gnu/11/../../../../include/c++/11/bits/shared_ptr_base.h:1099:17
	ldrb	w2, [sp, #15]
	bl	_ZNSt14__shared_countILN9__gnu_cxx12_Lock_policyE2EEC2IPN3org9blobstore15BlobstoreClient4implEEET_St17integral_constantIbLb0EE
	ldr	x0, [sp]                        // 8-byte Folded Reload
.Ltmp245:
	.loc	22 1103 36 is_stmt 1            // /usr/bin/../lib/gcc/aarch64-linux-gnu/11/../../../../include/c++/11/bits/shared_ptr_base.h:1103:36
	ldr	x1, [sp, #16]
	.loc	22 1103 4 is_stmt 0             // /usr/bin/../lib/gcc/aarch64-linux-gnu/11/../../../../include/c++/11/bits/shared_ptr_base.h:1103:4
	bl	_ZNSt12__shared_ptrIN3org9blobstore15BlobstoreClient4implELN9__gnu_cxx12_Lock_policyE2EE31_M_enable_shared_from_this_withIS3_S3_EENSt9enable_ifIXntsr15__has_esft_baseIT0_EE5valueEvE4typeEPT_
.Ltmp246:
	.loc	22 1104 2 is_stmt 1             // /usr/bin/../lib/gcc/aarch64-linux-gnu/11/../../../../include/c++/11/bits/shared_ptr_base.h:1104:2
	ldp	x29, x30, [sp, #32]             // 16-byte Folded Reload
	add	sp, sp, #48
	ret
.Ltmp247:
.Lfunc_end80:
	.size	_ZNSt12__shared_ptrIN3org9blobstore15BlobstoreClient4implELN9__gnu_cxx12_Lock_policyE2EEC2IS3_vEEPT_, .Lfunc_end80-_ZNSt12__shared_ptrIN3org9blobstore15BlobstoreClient4implELN9__gnu_cxx12_Lock_policyE2EEC2IS3_vEEPT_
	.cfi_endproc
                                        // -- End function
	.section	.text._ZNSt14__shared_countILN9__gnu_cxx12_Lock_policyE2EEC2IPN3org9blobstore15BlobstoreClient4implEEET_St17integral_constantIbLb0EE,"axG",@progbits,_ZNSt14__shared_countILN9__gnu_cxx12_Lock_policyE2EEC2IPN3org9blobstore15BlobstoreClient4implEEET_St17integral_constantIbLb0EE,comdat
	.weak	_ZNSt14__shared_countILN9__gnu_cxx12_Lock_policyE2EEC2IPN3org9blobstore15BlobstoreClient4implEEET_St17integral_constantIbLb0EE // -- Begin function _ZNSt14__shared_countILN9__gnu_cxx12_Lock_policyE2EEC2IPN3org9blobstore15BlobstoreClient4implEEET_St17integral_constantIbLb0EE
	.p2align	2
	.type	_ZNSt14__shared_countILN9__gnu_cxx12_Lock_policyE2EEC2IPN3org9blobstore15BlobstoreClient4implEEET_St17integral_constantIbLb0EE,@function
_ZNSt14__shared_countILN9__gnu_cxx12_Lock_policyE2EEC2IPN3org9blobstore15BlobstoreClient4implEEET_St17integral_constantIbLb0EE: // @_ZNSt14__shared_countILN9__gnu_cxx12_Lock_policyE2EEC2IPN3org9blobstore15BlobstoreClient4implEEET_St17integral_constantIbLb0EE
.Lfunc_begin81:
	.loc	22 608 0                        // /usr/bin/../lib/gcc/aarch64-linux-gnu/11/../../../../include/c++/11/bits/shared_ptr_base.h:608:0
	.cfi_startproc
// %bb.0:
	sub	sp, sp, #48
	stp	x29, x30, [sp, #32]             // 16-byte Folded Spill
	add	x29, sp, #32
	.cfi_def_cfa w29, 16
	.cfi_offset w30, -8
	.cfi_offset w29, -16
	sturb	w2, [x29, #-1]
	str	x0, [sp, #16]
	str	x1, [sp, #8]
	ldr	x0, [sp, #16]
.Ltmp248:
	.loc	22 607 19 prologue_end          // /usr/bin/../lib/gcc/aarch64-linux-gnu/11/../../../../include/c++/11/bits/shared_ptr_base.h:607:19
	ldr	x1, [sp, #8]
	.loc	22 607 4 is_stmt 0              // /usr/bin/../lib/gcc/aarch64-linux-gnu/11/../../../../include/c++/11/bits/shared_ptr_base.h:607:4
	bl	_ZNSt14__shared_countILN9__gnu_cxx12_Lock_policyE2EEC2IPN3org9blobstore15BlobstoreClient4implEEET_
	.loc	22 608 4 is_stmt 1              // /usr/bin/../lib/gcc/aarch64-linux-gnu/11/../../../../include/c++/11/bits/shared_ptr_base.h:608:4
	ldp	x29, x30, [sp, #32]             // 16-byte Folded Reload
	add	sp, sp, #48
	ret
.Ltmp249:
.Lfunc_end81:
	.size	_ZNSt14__shared_countILN9__gnu_cxx12_Lock_policyE2EEC2IPN3org9blobstore15BlobstoreClient4implEEET_St17integral_constantIbLb0EE, .Lfunc_end81-_ZNSt14__shared_countILN9__gnu_cxx12_Lock_policyE2EEC2IPN3org9blobstore15BlobstoreClient4implEEET_St17integral_constantIbLb0EE
	.cfi_endproc
                                        // -- End function
	.section	.text._ZNSt12__shared_ptrIN3org9blobstore15BlobstoreClient4implELN9__gnu_cxx12_Lock_policyE2EE31_M_enable_shared_from_this_withIS3_S3_EENSt9enable_ifIXntsr15__has_esft_baseIT0_EE5valueEvE4typeEPT_,"axG",@progbits,_ZNSt12__shared_ptrIN3org9blobstore15BlobstoreClient4implELN9__gnu_cxx12_Lock_policyE2EE31_M_enable_shared_from_this_withIS3_S3_EENSt9enable_ifIXntsr15__has_esft_baseIT0_EE5valueEvE4typeEPT_,comdat
	.weak	_ZNSt12__shared_ptrIN3org9blobstore15BlobstoreClient4implELN9__gnu_cxx12_Lock_policyE2EE31_M_enable_shared_from_this_withIS3_S3_EENSt9enable_ifIXntsr15__has_esft_baseIT0_EE5valueEvE4typeEPT_ // -- Begin function _ZNSt12__shared_ptrIN3org9blobstore15BlobstoreClient4implELN9__gnu_cxx12_Lock_policyE2EE31_M_enable_shared_from_this_withIS3_S3_EENSt9enable_ifIXntsr15__has_esft_baseIT0_EE5valueEvE4typeEPT_
	.p2align	2
	.type	_ZNSt12__shared_ptrIN3org9blobstore15BlobstoreClient4implELN9__gnu_cxx12_Lock_policyE2EE31_M_enable_shared_from_this_withIS3_S3_EENSt9enable_ifIXntsr15__has_esft_baseIT0_EE5valueEvE4typeEPT_,@function
_ZNSt12__shared_ptrIN3org9blobstore15BlobstoreClient4implELN9__gnu_cxx12_Lock_policyE2EE31_M_enable_shared_from_this_withIS3_S3_EENSt9enable_ifIXntsr15__has_esft_baseIT0_EE5valueEvE4typeEPT_: // @_ZNSt12__shared_ptrIN3org9blobstore15BlobstoreClient4implELN9__gnu_cxx12_Lock_policyE2EE31_M_enable_shared_from_this_withIS3_S3_EENSt9enable_ifIXntsr15__has_esft_baseIT0_EE5valueEvE4typeEPT_
.Lfunc_begin82:
	.loc	22 1387 0                       // /usr/bin/../lib/gcc/aarch64-linux-gnu/11/../../../../include/c++/11/bits/shared_ptr_base.h:1387:0
	.cfi_startproc
// %bb.0:
	sub	sp, sp, #16
	.cfi_def_cfa_offset 16
	str	x0, [sp, #8]
	str	x1, [sp]
.Ltmp251:
	.loc	22 1387 4 prologue_end          // /usr/bin/../lib/gcc/aarch64-linux-gnu/11/../../../../include/c++/11/bits/shared_ptr_base.h:1387:4
	add	sp, sp, #16
	ret
.Ltmp252:
.Lfunc_end82:
	.size	_ZNSt12__shared_ptrIN3org9blobstore15BlobstoreClient4implELN9__gnu_cxx12_Lock_policyE2EE31_M_enable_shared_from_this_withIS3_S3_EENSt9enable_ifIXntsr15__has_esft_baseIT0_EE5valueEvE4typeEPT_, .Lfunc_end82-_ZNSt12__shared_ptrIN3org9blobstore15BlobstoreClient4implELN9__gnu_cxx12_Lock_policyE2EE31_M_enable_shared_from_this_withIS3_S3_EENSt9enable_ifIXntsr15__has_esft_baseIT0_EE5valueEvE4typeEPT_
	.cfi_endproc
                                        // -- End function
	.section	.text._ZNSt14__shared_countILN9__gnu_cxx12_Lock_policyE2EEC2IPN3org9blobstore15BlobstoreClient4implEEET_,"axG",@progbits,_ZNSt14__shared_countILN9__gnu_cxx12_Lock_policyE2EEC2IPN3org9blobstore15BlobstoreClient4implEEET_,comdat
	.weak	_ZNSt14__shared_countILN9__gnu_cxx12_Lock_policyE2EEC2IPN3org9blobstore15BlobstoreClient4implEEET_ // -- Begin function _ZNSt14__shared_countILN9__gnu_cxx12_Lock_policyE2EEC2IPN3org9blobstore15BlobstoreClient4implEEET_
	.p2align	2
	.type	_ZNSt14__shared_countILN9__gnu_cxx12_Lock_policyE2EEC2IPN3org9blobstore15BlobstoreClient4implEEET_,@function
_ZNSt14__shared_countILN9__gnu_cxx12_Lock_policyE2EEC2IPN3org9blobstore15BlobstoreClient4implEEET_: // @_ZNSt14__shared_countILN9__gnu_cxx12_Lock_policyE2EEC2IPN3org9blobstore15BlobstoreClient4implEEET_
.Lfunc_begin83:
	.loc	22 593 0                        // /usr/bin/../lib/gcc/aarch64-linux-gnu/11/../../../../include/c++/11/bits/shared_ptr_base.h:593:0
	.cfi_startproc
	.cfi_personality 156, DW.ref.__gxx_personality_v0
	.cfi_lsda 28, .Lexception10
// %bb.0:
	sub	sp, sp, #80
	stp	x29, x30, [sp, #64]             // 16-byte Folded Spill
	add	x29, sp, #64
	.cfi_def_cfa w29, 16
	.cfi_offset w30, -8
	.cfi_offset w29, -16
	stur	x0, [x29, #-8]
	stur	x1, [x29, #-16]
	ldur	x8, [x29, #-8]
	str	x8, [sp, #16]                   // 8-byte Folded Spill
                                        // kill: def $x9 killed $xzr
.Ltmp262:
	.loc	22 592 29 prologue_end          // /usr/bin/../lib/gcc/aarch64-linux-gnu/11/../../../../include/c++/11/bits/shared_ptr_base.h:592:29
	str	xzr, [x8]
.Ltmp253:
	mov	x0, #24
.Ltmp263:
	.loc	22 596 16                       // /usr/bin/../lib/gcc/aarch64-linux-gnu/11/../../../../include/c++/11/bits/shared_ptr_base.h:596:16
	bl	_Znwm
	str	x0, [sp, #24]                   // 8-byte Folded Spill
.Ltmp254:
	b	.LBB83_1
.LBB83_1:
	.loc	22 0 16 is_stmt 0               // /usr/bin/../lib/gcc/aarch64-linux-gnu/11/../../../../include/c++/11/bits/shared_ptr_base.h:0:16
	ldr	x0, [sp, #24]                   // 8-byte Folded Reload
	.loc	22 596 47                       // /usr/bin/../lib/gcc/aarch64-linux-gnu/11/../../../../include/c++/11/bits/shared_ptr_base.h:596:47
	ldur	x1, [x29, #-16]
	.loc	22 596 20                       // /usr/bin/../lib/gcc/aarch64-linux-gnu/11/../../../../include/c++/11/bits/shared_ptr_base.h:596:20
	bl	_ZNSt15_Sp_counted_ptrIPN3org9blobstore15BlobstoreClient4implELN9__gnu_cxx12_Lock_policyE2EEC2ES4_
	ldr	x8, [sp, #24]                   // 8-byte Folded Reload
	ldr	x9, [sp, #16]                   // 8-byte Folded Reload
	.loc	22 596 14                       // /usr/bin/../lib/gcc/aarch64-linux-gnu/11/../../../../include/c++/11/bits/shared_ptr_base.h:596:14
	str	x8, [x9]
	.loc	22 597 6 is_stmt 1              // /usr/bin/../lib/gcc/aarch64-linux-gnu/11/../../../../include/c++/11/bits/shared_ptr_base.h:597:6
	b	.LBB83_8
.LBB83_2:
.Ltmp255:
	.loc	22 603 2                        // /usr/bin/../lib/gcc/aarch64-linux-gnu/11/../../../../include/c++/11/bits/shared_ptr_base.h:603:2
	mov	w8, w1
	stur	x0, [x29, #-24]
	stur	w8, [x29, #-28]
	b	.LBB83_3
.LBB83_3:
	.loc	22 597 6                        // /usr/bin/../lib/gcc/aarch64-linux-gnu/11/../../../../include/c++/11/bits/shared_ptr_base.h:597:6
	ldur	x0, [x29, #-24]
	bl	__cxa_begin_catch
.Ltmp264:
	.loc	22 600 15                       // /usr/bin/../lib/gcc/aarch64-linux-gnu/11/../../../../include/c++/11/bits/shared_ptr_base.h:600:15
	ldur	x8, [x29, #-16]
	str	x8, [sp, #8]                    // 8-byte Folded Spill
	.loc	22 600 8 is_stmt 0              // /usr/bin/../lib/gcc/aarch64-linux-gnu/11/../../../../include/c++/11/bits/shared_ptr_base.h:600:8
	cbz	x8, .LBB83_5
	b	.LBB83_4
.LBB83_4:
	.loc	22 0 8                          // /usr/bin/../lib/gcc/aarch64-linux-gnu/11/../../../../include/c++/11/bits/shared_ptr_base.h:0:8
	ldr	x0, [sp, #8]                    // 8-byte Folded Reload
	.loc	22 600 8                        // /usr/bin/../lib/gcc/aarch64-linux-gnu/11/../../../../include/c++/11/bits/shared_ptr_base.h:600:8
	bl	_ZN3org9blobstore15BlobstoreClient4implD2Ev
	ldr	x0, [sp, #8]                    // 8-byte Folded Reload
	bl	_ZdlPv
	b	.LBB83_5
.LBB83_5:
.Ltmp256:
	.loc	22 601 8 is_stmt 1              // /usr/bin/../lib/gcc/aarch64-linux-gnu/11/../../../../include/c++/11/bits/shared_ptr_base.h:601:8
	bl	__cxa_rethrow
.Ltmp257:
	b	.LBB83_11
.LBB83_6:
.Ltmp258:
	.loc	22 603 2                        // /usr/bin/../lib/gcc/aarch64-linux-gnu/11/../../../../include/c++/11/bits/shared_ptr_base.h:603:2
	mov	w8, w1
	stur	x0, [x29, #-24]
	stur	w8, [x29, #-28]
.Ltmp259:
	.loc	22 602 6                        // /usr/bin/../lib/gcc/aarch64-linux-gnu/11/../../../../include/c++/11/bits/shared_ptr_base.h:602:6
	bl	__cxa_end_catch
.Ltmp260:
	b	.LBB83_7
.LBB83_7:
	b	.LBB83_9
.Ltmp265:
.LBB83_8:
	.loc	22 603 2                        // /usr/bin/../lib/gcc/aarch64-linux-gnu/11/../../../../include/c++/11/bits/shared_ptr_base.h:603:2
	ldp	x29, x30, [sp, #64]             // 16-byte Folded Reload
	add	sp, sp, #80
	ret
.LBB83_9:
.Ltmp266:
	.loc	22 602 6                        // /usr/bin/../lib/gcc/aarch64-linux-gnu/11/../../../../include/c++/11/bits/shared_ptr_base.h:602:6
	ldur	x0, [x29, #-24]
	bl	_Unwind_Resume
.LBB83_10:
.Ltmp261:
	bl	__clang_call_terminate
.Ltmp267:
.LBB83_11:
.Lfunc_end83:
	.size	_ZNSt14__shared_countILN9__gnu_cxx12_Lock_policyE2EEC2IPN3org9blobstore15BlobstoreClient4implEEET_, .Lfunc_end83-_ZNSt14__shared_countILN9__gnu_cxx12_Lock_policyE2EEC2IPN3org9blobstore15BlobstoreClient4implEEET_
	.cfi_endproc
	.section	.gcc_except_table._ZNSt14__shared_countILN9__gnu_cxx12_Lock_policyE2EEC2IPN3org9blobstore15BlobstoreClient4implEEET_,"aG",@progbits,_ZNSt14__shared_countILN9__gnu_cxx12_Lock_policyE2EEC2IPN3org9blobstore15BlobstoreClient4implEEET_,comdat
	.p2align	2
GCC_except_table83:
.Lexception10:
	.byte	255                             // @LPStart Encoding = omit
	.byte	156                             // @TType Encoding = indirect pcrel sdata8
	.uleb128 .Lttbase7-.Lttbaseref7
.Lttbaseref7:
	.byte	1                               // Call site Encoding = uleb128
	.uleb128 .Lcst_end10-.Lcst_begin10
.Lcst_begin10:
	.uleb128 .Ltmp253-.Lfunc_begin83        // >> Call Site 1 <<
	.uleb128 .Ltmp254-.Ltmp253              //   Call between .Ltmp253 and .Ltmp254
	.uleb128 .Ltmp255-.Lfunc_begin83        //     jumps to .Ltmp255
	.byte	1                               //   On action: 1
	.uleb128 .Ltmp254-.Lfunc_begin83        // >> Call Site 2 <<
	.uleb128 .Ltmp256-.Ltmp254              //   Call between .Ltmp254 and .Ltmp256
	.byte	0                               //     has no landing pad
	.byte	0                               //   On action: cleanup
	.uleb128 .Ltmp256-.Lfunc_begin83        // >> Call Site 3 <<
	.uleb128 .Ltmp257-.Ltmp256              //   Call between .Ltmp256 and .Ltmp257
	.uleb128 .Ltmp258-.Lfunc_begin83        //     jumps to .Ltmp258
	.byte	0                               //   On action: cleanup
	.uleb128 .Ltmp259-.Lfunc_begin83        // >> Call Site 4 <<
	.uleb128 .Ltmp260-.Ltmp259              //   Call between .Ltmp259 and .Ltmp260
	.uleb128 .Ltmp261-.Lfunc_begin83        //     jumps to .Ltmp261
	.byte	1                               //   On action: 1
	.uleb128 .Ltmp260-.Lfunc_begin83        // >> Call Site 5 <<
	.uleb128 .Lfunc_end83-.Ltmp260          //   Call between .Ltmp260 and .Lfunc_end83
	.byte	0                               //     has no landing pad
	.byte	0                               //   On action: cleanup
.Lcst_end10:
	.byte	1                               // >> Action Record 1 <<
                                        //   Catch TypeInfo 1
	.byte	0                               //   No further actions
	.p2align	2
                                        // >> Catch TypeInfos <<
	.xword	0                               // TypeInfo 1
.Lttbase7:
	.p2align	2
                                        // -- End function
	.section	.text._ZNSt15_Sp_counted_ptrIPN3org9blobstore15BlobstoreClient4implELN9__gnu_cxx12_Lock_policyE2EEC2ES4_,"axG",@progbits,_ZNSt15_Sp_counted_ptrIPN3org9blobstore15BlobstoreClient4implELN9__gnu_cxx12_Lock_policyE2EEC2ES4_,comdat
	.weak	_ZNSt15_Sp_counted_ptrIPN3org9blobstore15BlobstoreClient4implELN9__gnu_cxx12_Lock_policyE2EEC2ES4_ // -- Begin function _ZNSt15_Sp_counted_ptrIPN3org9blobstore15BlobstoreClient4implELN9__gnu_cxx12_Lock_policyE2EEC2ES4_
	.p2align	2
	.type	_ZNSt15_Sp_counted_ptrIPN3org9blobstore15BlobstoreClient4implELN9__gnu_cxx12_Lock_policyE2EEC2ES4_,@function
_ZNSt15_Sp_counted_ptrIPN3org9blobstore15BlobstoreClient4implELN9__gnu_cxx12_Lock_policyE2EEC2ES4_: // @_ZNSt15_Sp_counted_ptrIPN3org9blobstore15BlobstoreClient4implELN9__gnu_cxx12_Lock_policyE2EEC2ES4_
.Lfunc_begin84:
	.loc	22 344 0                        // /usr/bin/../lib/gcc/aarch64-linux-gnu/11/../../../../include/c++/11/bits/shared_ptr_base.h:344:0
	.cfi_startproc
// %bb.0:
	sub	sp, sp, #48
	stp	x29, x30, [sp, #32]             // 16-byte Folded Spill
	add	x29, sp, #32
	.cfi_def_cfa w29, 16
	.cfi_offset w30, -8
	.cfi_offset w29, -16
.Ltmp268:
	.loc	22 0 0 is_stmt 0                // /usr/bin/../lib/gcc/aarch64-linux-gnu/11/../../../../include/c++/11/bits/shared_ptr_base.h:0:0
	adrp	x8, _ZTVSt15_Sp_counted_ptrIPN3org9blobstore15BlobstoreClient4implELN9__gnu_cxx12_Lock_policyE2EE
	add	x8, x8, :lo12:_ZTVSt15_Sp_counted_ptrIPN3org9blobstore15BlobstoreClient4implELN9__gnu_cxx12_Lock_policyE2EE
	add	x8, x8, #16
	str	x8, [sp]                        // 8-byte Folded Spill
	stur	x0, [x29, #-8]
	str	x1, [sp, #16]
	ldur	x0, [x29, #-8]
	str	x0, [sp, #8]                    // 8-byte Folded Spill
	.loc	22 343 7 prologue_end is_stmt 1 // /usr/bin/../lib/gcc/aarch64-linux-gnu/11/../../../../include/c++/11/bits/shared_ptr_base.h:343:7
	bl	_ZNSt16_Sp_counted_baseILN9__gnu_cxx12_Lock_policyE2EEC2Ev
	ldr	x8, [sp]                        // 8-byte Folded Reload
	ldr	x9, [sp, #8]                    // 8-byte Folded Reload
	.loc	22 344 21                       // /usr/bin/../lib/gcc/aarch64-linux-gnu/11/../../../../include/c++/11/bits/shared_ptr_base.h:344:21
	str	x8, [x9]
	.loc	22 344 16 is_stmt 0             // /usr/bin/../lib/gcc/aarch64-linux-gnu/11/../../../../include/c++/11/bits/shared_ptr_base.h:344:16
	ldr	x8, [sp, #16]
	.loc	22 344 9                        // /usr/bin/../lib/gcc/aarch64-linux-gnu/11/../../../../include/c++/11/bits/shared_ptr_base.h:344:9
	str	x8, [x9, #16]
	.loc	22 344 23                       // /usr/bin/../lib/gcc/aarch64-linux-gnu/11/../../../../include/c++/11/bits/shared_ptr_base.h:344:23
	ldp	x29, x30, [sp, #32]             // 16-byte Folded Reload
	add	sp, sp, #48
	ret
.Ltmp269:
.Lfunc_end84:
	.size	_ZNSt15_Sp_counted_ptrIPN3org9blobstore15BlobstoreClient4implELN9__gnu_cxx12_Lock_policyE2EEC2ES4_, .Lfunc_end84-_ZNSt15_Sp_counted_ptrIPN3org9blobstore15BlobstoreClient4implELN9__gnu_cxx12_Lock_policyE2EEC2ES4_
	.cfi_endproc
                                        // -- End function
	.section	.text._ZN3org9blobstore15BlobstoreClient4implD2Ev,"axG",@progbits,_ZN3org9blobstore15BlobstoreClient4implD2Ev,comdat
	.weak	_ZN3org9blobstore15BlobstoreClient4implD2Ev // -- Begin function _ZN3org9blobstore15BlobstoreClient4implD2Ev
	.p2align	2
	.type	_ZN3org9blobstore15BlobstoreClient4implD2Ev,@function
_ZN3org9blobstore15BlobstoreClient4implD2Ev: // @_ZN3org9blobstore15BlobstoreClient4implD2Ev
.Lfunc_begin85:
	.loc	14 15 0 is_stmt 1               // src/blobstore.cc:15:0
	.cfi_startproc
// %bb.0:
	sub	sp, sp, #32
	stp	x29, x30, [sp, #16]             // 16-byte Folded Spill
	add	x29, sp, #16
	.cfi_def_cfa w29, 16
	.cfi_offset w30, -8
	.cfi_offset w29, -16
	str	x0, [sp, #8]
	ldr	x0, [sp, #8]
.Ltmp270:
	.loc	14 15 24 prologue_end           // src/blobstore.cc:15:24
	bl	_ZNSt13unordered_mapImN3org9blobstore15BlobstoreClient4impl4BlobESt4hashImESt8equal_toImESaISt4pairIKmS4_EEED2Ev
.Ltmp271:
	.loc	14 15 24 is_stmt 0              // src/blobstore.cc:15:24
	ldp	x29, x30, [sp, #16]             // 16-byte Folded Reload
	add	sp, sp, #32
	ret
.Ltmp272:
.Lfunc_end85:
	.size	_ZN3org9blobstore15BlobstoreClient4implD2Ev, .Lfunc_end85-_ZN3org9blobstore15BlobstoreClient4implD2Ev
	.cfi_endproc
                                        // -- End function
	.section	.text._ZNSt16_Sp_counted_baseILN9__gnu_cxx12_Lock_policyE2EEC2Ev,"axG",@progbits,_ZNSt16_Sp_counted_baseILN9__gnu_cxx12_Lock_policyE2EEC2Ev,comdat
	.weak	_ZNSt16_Sp_counted_baseILN9__gnu_cxx12_Lock_policyE2EEC2Ev // -- Begin function _ZNSt16_Sp_counted_baseILN9__gnu_cxx12_Lock_policyE2EEC2Ev
	.p2align	2
	.type	_ZNSt16_Sp_counted_baseILN9__gnu_cxx12_Lock_policyE2EEC2Ev,@function
_ZNSt16_Sp_counted_baseILN9__gnu_cxx12_Lock_policyE2EEC2Ev: // @_ZNSt16_Sp_counted_baseILN9__gnu_cxx12_Lock_policyE2EEC2Ev
.Lfunc_begin86:
	.loc	22 127 0 is_stmt 1              // /usr/bin/../lib/gcc/aarch64-linux-gnu/11/../../../../include/c++/11/bits/shared_ptr_base.h:127:0
	.cfi_startproc
// %bb.0:
	sub	sp, sp, #16
	.cfi_def_cfa_offset 16
.Ltmp274:
	.loc	22 0 0 is_stmt 0                // /usr/bin/../lib/gcc/aarch64-linux-gnu/11/../../../../include/c++/11/bits/shared_ptr_base.h:0:0
	adrp	x8, _ZTVSt16_Sp_counted_baseILN9__gnu_cxx12_Lock_policyE2EE
	add	x8, x8, :lo12:_ZTVSt16_Sp_counted_baseILN9__gnu_cxx12_Lock_policyE2EE
	add	x8, x8, #16
	str	x0, [sp, #8]
	ldr	x9, [sp, #8]
	.loc	22 127 43 prologue_end is_stmt 1 // /usr/bin/../lib/gcc/aarch64-linux-gnu/11/../../../../include/c++/11/bits/shared_ptr_base.h:127:43
	str	x8, [x9]
	mov	w8, #1
	.loc	22 127 9 is_stmt 0              // /usr/bin/../lib/gcc/aarch64-linux-gnu/11/../../../../include/c++/11/bits/shared_ptr_base.h:127:9
	str	w8, [x9, #8]
	.loc	22 127 26                       // /usr/bin/../lib/gcc/aarch64-linux-gnu/11/../../../../include/c++/11/bits/shared_ptr_base.h:127:26
	str	w8, [x9, #12]
	.loc	22 127 45                       // /usr/bin/../lib/gcc/aarch64-linux-gnu/11/../../../../include/c++/11/bits/shared_ptr_base.h:127:45
	add	sp, sp, #16
	ret
.Ltmp275:
.Lfunc_end86:
	.size	_ZNSt16_Sp_counted_baseILN9__gnu_cxx12_Lock_policyE2EEC2Ev, .Lfunc_end86-_ZNSt16_Sp_counted_baseILN9__gnu_cxx12_Lock_policyE2EEC2Ev
	.cfi_endproc
                                        // -- End function
	.section	.text._ZNSt15_Sp_counted_ptrIPN3org9blobstore15BlobstoreClient4implELN9__gnu_cxx12_Lock_policyE2EED2Ev,"axG",@progbits,_ZNSt15_Sp_counted_ptrIPN3org9blobstore15BlobstoreClient4implELN9__gnu_cxx12_Lock_policyE2EED2Ev,comdat
	.weak	_ZNSt15_Sp_counted_ptrIPN3org9blobstore15BlobstoreClient4implELN9__gnu_cxx12_Lock_policyE2EED2Ev // -- Begin function _ZNSt15_Sp_counted_ptrIPN3org9blobstore15BlobstoreClient4implELN9__gnu_cxx12_Lock_policyE2EED2Ev
	.p2align	2
	.type	_ZNSt15_Sp_counted_ptrIPN3org9blobstore15BlobstoreClient4implELN9__gnu_cxx12_Lock_policyE2EED2Ev,@function
_ZNSt15_Sp_counted_ptrIPN3org9blobstore15BlobstoreClient4implELN9__gnu_cxx12_Lock_policyE2EED2Ev: // @_ZNSt15_Sp_counted_ptrIPN3org9blobstore15BlobstoreClient4implELN9__gnu_cxx12_Lock_policyE2EED2Ev
.Lfunc_begin87:
	.loc	22 339 0 is_stmt 1              // /usr/bin/../lib/gcc/aarch64-linux-gnu/11/../../../../include/c++/11/bits/shared_ptr_base.h:339:0
	.cfi_startproc
// %bb.0:
	sub	sp, sp, #32
	stp	x29, x30, [sp, #16]             // 16-byte Folded Spill
	add	x29, sp, #16
	.cfi_def_cfa w29, 16
	.cfi_offset w30, -8
	.cfi_offset w29, -16
	str	x0, [sp, #8]
	ldr	x0, [sp, #8]
.Ltmp276:
	.loc	22 339 11 prologue_end          // /usr/bin/../lib/gcc/aarch64-linux-gnu/11/../../../../include/c++/11/bits/shared_ptr_base.h:339:11
	bl	_ZNSt16_Sp_counted_baseILN9__gnu_cxx12_Lock_policyE2EED2Ev
.Ltmp277:
	.loc	22 339 11 is_stmt 0             // /usr/bin/../lib/gcc/aarch64-linux-gnu/11/../../../../include/c++/11/bits/shared_ptr_base.h:339:11
	ldp	x29, x30, [sp, #16]             // 16-byte Folded Reload
	add	sp, sp, #32
	ret
.Ltmp278:
.Lfunc_end87:
	.size	_ZNSt15_Sp_counted_ptrIPN3org9blobstore15BlobstoreClient4implELN9__gnu_cxx12_Lock_policyE2EED2Ev, .Lfunc_end87-_ZNSt15_Sp_counted_ptrIPN3org9blobstore15BlobstoreClient4implELN9__gnu_cxx12_Lock_policyE2EED2Ev
	.cfi_endproc
                                        // -- End function
	.section	.text._ZNSt15_Sp_counted_ptrIPN3org9blobstore15BlobstoreClient4implELN9__gnu_cxx12_Lock_policyE2EED0Ev,"axG",@progbits,_ZNSt15_Sp_counted_ptrIPN3org9blobstore15BlobstoreClient4implELN9__gnu_cxx12_Lock_policyE2EED0Ev,comdat
	.weak	_ZNSt15_Sp_counted_ptrIPN3org9blobstore15BlobstoreClient4implELN9__gnu_cxx12_Lock_policyE2EED0Ev // -- Begin function _ZNSt15_Sp_counted_ptrIPN3org9blobstore15BlobstoreClient4implELN9__gnu_cxx12_Lock_policyE2EED0Ev
	.p2align	2
	.type	_ZNSt15_Sp_counted_ptrIPN3org9blobstore15BlobstoreClient4implELN9__gnu_cxx12_Lock_policyE2EED0Ev,@function
_ZNSt15_Sp_counted_ptrIPN3org9blobstore15BlobstoreClient4implELN9__gnu_cxx12_Lock_policyE2EED0Ev: // @_ZNSt15_Sp_counted_ptrIPN3org9blobstore15BlobstoreClient4implELN9__gnu_cxx12_Lock_policyE2EED0Ev
.Lfunc_begin88:
	.loc	22 339 0 is_stmt 1              // /usr/bin/../lib/gcc/aarch64-linux-gnu/11/../../../../include/c++/11/bits/shared_ptr_base.h:339:0
	.cfi_startproc
// %bb.0:
	sub	sp, sp, #32
	stp	x29, x30, [sp, #16]             // 16-byte Folded Spill
	add	x29, sp, #16
	.cfi_def_cfa w29, 16
	.cfi_offset w30, -8
	.cfi_offset w29, -16
	str	x0, [sp, #8]
	ldr	x0, [sp, #8]
	str	x0, [sp]                        // 8-byte Folded Spill
.Ltmp279:
	.loc	22 339 11 prologue_end          // /usr/bin/../lib/gcc/aarch64-linux-gnu/11/../../../../include/c++/11/bits/shared_ptr_base.h:339:11
	bl	_ZNSt15_Sp_counted_ptrIPN3org9blobstore15BlobstoreClient4implELN9__gnu_cxx12_Lock_policyE2EED2Ev
	ldr	x0, [sp]                        // 8-byte Folded Reload
	bl	_ZdlPv
	ldp	x29, x30, [sp, #16]             // 16-byte Folded Reload
	add	sp, sp, #32
	ret
.Ltmp280:
.Lfunc_end88:
	.size	_ZNSt15_Sp_counted_ptrIPN3org9blobstore15BlobstoreClient4implELN9__gnu_cxx12_Lock_policyE2EED0Ev, .Lfunc_end88-_ZNSt15_Sp_counted_ptrIPN3org9blobstore15BlobstoreClient4implELN9__gnu_cxx12_Lock_policyE2EED0Ev
	.cfi_endproc
                                        // -- End function
	.section	.text._ZNSt15_Sp_counted_ptrIPN3org9blobstore15BlobstoreClient4implELN9__gnu_cxx12_Lock_policyE2EE10_M_disposeEv,"axG",@progbits,_ZNSt15_Sp_counted_ptrIPN3org9blobstore15BlobstoreClient4implELN9__gnu_cxx12_Lock_policyE2EE10_M_disposeEv,comdat
	.weak	_ZNSt15_Sp_counted_ptrIPN3org9blobstore15BlobstoreClient4implELN9__gnu_cxx12_Lock_policyE2EE10_M_disposeEv // -- Begin function _ZNSt15_Sp_counted_ptrIPN3org9blobstore15BlobstoreClient4implELN9__gnu_cxx12_Lock_policyE2EE10_M_disposeEv
	.p2align	2
	.type	_ZNSt15_Sp_counted_ptrIPN3org9blobstore15BlobstoreClient4implELN9__gnu_cxx12_Lock_policyE2EE10_M_disposeEv,@function
_ZNSt15_Sp_counted_ptrIPN3org9blobstore15BlobstoreClient4implELN9__gnu_cxx12_Lock_policyE2EE10_M_disposeEv: // @_ZNSt15_Sp_counted_ptrIPN3org9blobstore15BlobstoreClient4implELN9__gnu_cxx12_Lock_policyE2EE10_M_disposeEv
.Lfunc_begin89:
	.loc	22 348 0                        // /usr/bin/../lib/gcc/aarch64-linux-gnu/11/../../../../include/c++/11/bits/shared_ptr_base.h:348:0
	.cfi_startproc
// %bb.0:
	sub	sp, sp, #32
	stp	x29, x30, [sp, #16]             // 16-byte Folded Spill
	add	x29, sp, #16
	.cfi_def_cfa w29, 16
	.cfi_offset w30, -8
	.cfi_offset w29, -16
	str	x0, [sp, #8]
	ldr	x8, [sp, #8]
.Ltmp281:
	.loc	22 348 16 prologue_end          // /usr/bin/../lib/gcc/aarch64-linux-gnu/11/../../../../include/c++/11/bits/shared_ptr_base.h:348:16
	ldr	x8, [x8, #16]
	str	x8, [sp]                        // 8-byte Folded Spill
	.loc	22 348 9 is_stmt 0              // /usr/bin/../lib/gcc/aarch64-linux-gnu/11/../../../../include/c++/11/bits/shared_ptr_base.h:348:9
	cbz	x8, .LBB89_2
	b	.LBB89_1
.LBB89_1:
	.loc	22 0 9                          // /usr/bin/../lib/gcc/aarch64-linux-gnu/11/../../../../include/c++/11/bits/shared_ptr_base.h:0:9
	ldr	x0, [sp]                        // 8-byte Folded Reload
	.loc	22 348 9                        // /usr/bin/../lib/gcc/aarch64-linux-gnu/11/../../../../include/c++/11/bits/shared_ptr_base.h:348:9
	bl	_ZN3org9blobstore15BlobstoreClient4implD2Ev
	ldr	x0, [sp]                        // 8-byte Folded Reload
	bl	_ZdlPv
	b	.LBB89_2
.LBB89_2:
	.loc	22 348 24                       // /usr/bin/../lib/gcc/aarch64-linux-gnu/11/../../../../include/c++/11/bits/shared_ptr_base.h:348:24
	ldp	x29, x30, [sp, #16]             // 16-byte Folded Reload
	add	sp, sp, #32
	ret
.Ltmp282:
.Lfunc_end89:
	.size	_ZNSt15_Sp_counted_ptrIPN3org9blobstore15BlobstoreClient4implELN9__gnu_cxx12_Lock_policyE2EE10_M_disposeEv, .Lfunc_end89-_ZNSt15_Sp_counted_ptrIPN3org9blobstore15BlobstoreClient4implELN9__gnu_cxx12_Lock_policyE2EE10_M_disposeEv
	.cfi_endproc
                                        // -- End function
	.section	.text._ZNSt15_Sp_counted_ptrIPN3org9blobstore15BlobstoreClient4implELN9__gnu_cxx12_Lock_policyE2EE10_M_destroyEv,"axG",@progbits,_ZNSt15_Sp_counted_ptrIPN3org9blobstore15BlobstoreClient4implELN9__gnu_cxx12_Lock_policyE2EE10_M_destroyEv,comdat
	.weak	_ZNSt15_Sp_counted_ptrIPN3org9blobstore15BlobstoreClient4implELN9__gnu_cxx12_Lock_policyE2EE10_M_destroyEv // -- Begin function _ZNSt15_Sp_counted_ptrIPN3org9blobstore15BlobstoreClient4implELN9__gnu_cxx12_Lock_policyE2EE10_M_destroyEv
	.p2align	2
	.type	_ZNSt15_Sp_counted_ptrIPN3org9blobstore15BlobstoreClient4implELN9__gnu_cxx12_Lock_policyE2EE10_M_destroyEv,@function
_ZNSt15_Sp_counted_ptrIPN3org9blobstore15BlobstoreClient4implELN9__gnu_cxx12_Lock_policyE2EE10_M_destroyEv: // @_ZNSt15_Sp_counted_ptrIPN3org9blobstore15BlobstoreClient4implELN9__gnu_cxx12_Lock_policyE2EE10_M_destroyEv
.Lfunc_begin90:
	.loc	22 352 0 is_stmt 1              // /usr/bin/../lib/gcc/aarch64-linux-gnu/11/../../../../include/c++/11/bits/shared_ptr_base.h:352:0
	.cfi_startproc
// %bb.0:
	sub	sp, sp, #32
	stp	x29, x30, [sp, #16]             // 16-byte Folded Spill
	add	x29, sp, #16
	.cfi_def_cfa w29, 16
	.cfi_offset w30, -8
	.cfi_offset w29, -16
	str	x0, [sp, #8]
	ldr	x8, [sp, #8]
	str	x8, [sp]                        // 8-byte Folded Spill
.Ltmp283:
	.loc	22 352 9 prologue_end           // /usr/bin/../lib/gcc/aarch64-linux-gnu/11/../../../../include/c++/11/bits/shared_ptr_base.h:352:9
	cbz	x8, .LBB90_2
	b	.LBB90_1
.LBB90_1:
	.loc	22 0 9 is_stmt 0                // /usr/bin/../lib/gcc/aarch64-linux-gnu/11/../../../../include/c++/11/bits/shared_ptr_base.h:0:9
	ldr	x0, [sp]                        // 8-byte Folded Reload
	.loc	22 352 9                        // /usr/bin/../lib/gcc/aarch64-linux-gnu/11/../../../../include/c++/11/bits/shared_ptr_base.h:352:9
	bl	_ZNSt15_Sp_counted_ptrIPN3org9blobstore15BlobstoreClient4implELN9__gnu_cxx12_Lock_policyE2EED2Ev
	ldr	x0, [sp]                        // 8-byte Folded Reload
	bl	_ZdlPv
	b	.LBB90_2
.LBB90_2:
	.loc	22 352 22                       // /usr/bin/../lib/gcc/aarch64-linux-gnu/11/../../../../include/c++/11/bits/shared_ptr_base.h:352:22
	ldp	x29, x30, [sp, #16]             // 16-byte Folded Reload
	add	sp, sp, #32
	ret
.Ltmp284:
.Lfunc_end90:
	.size	_ZNSt15_Sp_counted_ptrIPN3org9blobstore15BlobstoreClient4implELN9__gnu_cxx12_Lock_policyE2EE10_M_destroyEv, .Lfunc_end90-_ZNSt15_Sp_counted_ptrIPN3org9blobstore15BlobstoreClient4implELN9__gnu_cxx12_Lock_policyE2EE10_M_destroyEv
	.cfi_endproc
                                        // -- End function
	.section	.text._ZNSt15_Sp_counted_ptrIPN3org9blobstore15BlobstoreClient4implELN9__gnu_cxx12_Lock_policyE2EE14_M_get_deleterERKSt9type_info,"axG",@progbits,_ZNSt15_Sp_counted_ptrIPN3org9blobstore15BlobstoreClient4implELN9__gnu_cxx12_Lock_policyE2EE14_M_get_deleterERKSt9type_info,comdat
	.weak	_ZNSt15_Sp_counted_ptrIPN3org9blobstore15BlobstoreClient4implELN9__gnu_cxx12_Lock_policyE2EE14_M_get_deleterERKSt9type_info // -- Begin function _ZNSt15_Sp_counted_ptrIPN3org9blobstore15BlobstoreClient4implELN9__gnu_cxx12_Lock_policyE2EE14_M_get_deleterERKSt9type_info
	.p2align	2
	.type	_ZNSt15_Sp_counted_ptrIPN3org9blobstore15BlobstoreClient4implELN9__gnu_cxx12_Lock_policyE2EE14_M_get_deleterERKSt9type_info,@function
_ZNSt15_Sp_counted_ptrIPN3org9blobstore15BlobstoreClient4implELN9__gnu_cxx12_Lock_policyE2EE14_M_get_deleterERKSt9type_info: // @_ZNSt15_Sp_counted_ptrIPN3org9blobstore15BlobstoreClient4implELN9__gnu_cxx12_Lock_policyE2EE14_M_get_deleterERKSt9type_info
.Lfunc_begin91:
	.loc	22 356 0 is_stmt 1              // /usr/bin/../lib/gcc/aarch64-linux-gnu/11/../../../../include/c++/11/bits/shared_ptr_base.h:356:0
	.cfi_startproc
// %bb.0:
	sub	sp, sp, #16
	.cfi_def_cfa_offset 16
	str	x0, [sp, #8]
	str	x1, [sp]
	mov	x0, xzr
.Ltmp286:
	.loc	22 356 9 prologue_end           // /usr/bin/../lib/gcc/aarch64-linux-gnu/11/../../../../include/c++/11/bits/shared_ptr_base.h:356:9
	add	sp, sp, #16
	ret
.Ltmp287:
.Lfunc_end91:
	.size	_ZNSt15_Sp_counted_ptrIPN3org9blobstore15BlobstoreClient4implELN9__gnu_cxx12_Lock_policyE2EE14_M_get_deleterERKSt9type_info, .Lfunc_end91-_ZNSt15_Sp_counted_ptrIPN3org9blobstore15BlobstoreClient4implELN9__gnu_cxx12_Lock_policyE2EE14_M_get_deleterERKSt9type_info
	.cfi_endproc
                                        // -- End function
	.section	.text._ZNSt16_Sp_counted_baseILN9__gnu_cxx12_Lock_policyE2EED2Ev,"axG",@progbits,_ZNSt16_Sp_counted_baseILN9__gnu_cxx12_Lock_policyE2EED2Ev,comdat
	.weak	_ZNSt16_Sp_counted_baseILN9__gnu_cxx12_Lock_policyE2EED2Ev // -- Begin function _ZNSt16_Sp_counted_baseILN9__gnu_cxx12_Lock_policyE2EED2Ev
	.p2align	2
	.type	_ZNSt16_Sp_counted_baseILN9__gnu_cxx12_Lock_policyE2EED2Ev,@function
_ZNSt16_Sp_counted_baseILN9__gnu_cxx12_Lock_policyE2EED2Ev: // @_ZNSt16_Sp_counted_baseILN9__gnu_cxx12_Lock_policyE2EED2Ev
.Lfunc_begin92:
	.loc	22 131 0                        // /usr/bin/../lib/gcc/aarch64-linux-gnu/11/../../../../include/c++/11/bits/shared_ptr_base.h:131:0
	.cfi_startproc
// %bb.0:
	sub	sp, sp, #16
	.cfi_def_cfa_offset 16
	str	x0, [sp, #8]
.Ltmp289:
	.loc	22 131 9 prologue_end           // /usr/bin/../lib/gcc/aarch64-linux-gnu/11/../../../../include/c++/11/bits/shared_ptr_base.h:131:9
	add	sp, sp, #16
	ret
.Ltmp290:
.Lfunc_end92:
	.size	_ZNSt16_Sp_counted_baseILN9__gnu_cxx12_Lock_policyE2EED2Ev, .Lfunc_end92-_ZNSt16_Sp_counted_baseILN9__gnu_cxx12_Lock_policyE2EED2Ev
	.cfi_endproc
                                        // -- End function
	.section	.text._ZNSt16_Sp_counted_baseILN9__gnu_cxx12_Lock_policyE2EED0Ev,"axG",@progbits,_ZNSt16_Sp_counted_baseILN9__gnu_cxx12_Lock_policyE2EED0Ev,comdat
	.weak	_ZNSt16_Sp_counted_baseILN9__gnu_cxx12_Lock_policyE2EED0Ev // -- Begin function _ZNSt16_Sp_counted_baseILN9__gnu_cxx12_Lock_policyE2EED0Ev
	.p2align	2
	.type	_ZNSt16_Sp_counted_baseILN9__gnu_cxx12_Lock_policyE2EED0Ev,@function
_ZNSt16_Sp_counted_baseILN9__gnu_cxx12_Lock_policyE2EED0Ev: // @_ZNSt16_Sp_counted_baseILN9__gnu_cxx12_Lock_policyE2EED0Ev
.Lfunc_begin93:
	.loc	22 131 0                        // /usr/bin/../lib/gcc/aarch64-linux-gnu/11/../../../../include/c++/11/bits/shared_ptr_base.h:131:0
	.cfi_startproc
// %bb.0:
	sub	sp, sp, #16
	.cfi_def_cfa_offset 16
	str	x0, [sp, #8]
.Ltmp292:
	.loc	22 131 7 prologue_end           // /usr/bin/../lib/gcc/aarch64-linux-gnu/11/../../../../include/c++/11/bits/shared_ptr_base.h:131:7
	brk	#0x1
.Ltmp293:
.Lfunc_end93:
	.size	_ZNSt16_Sp_counted_baseILN9__gnu_cxx12_Lock_policyE2EED0Ev, .Lfunc_end93-_ZNSt16_Sp_counted_baseILN9__gnu_cxx12_Lock_policyE2EED0Ev
	.cfi_endproc
                                        // -- End function
	.section	.text._ZNSt16_Sp_counted_baseILN9__gnu_cxx12_Lock_policyE2EE10_M_destroyEv,"axG",@progbits,_ZNSt16_Sp_counted_baseILN9__gnu_cxx12_Lock_policyE2EE10_M_destroyEv,comdat
	.weak	_ZNSt16_Sp_counted_baseILN9__gnu_cxx12_Lock_policyE2EE10_M_destroyEv // -- Begin function _ZNSt16_Sp_counted_baseILN9__gnu_cxx12_Lock_policyE2EE10_M_destroyEv
	.p2align	2
	.type	_ZNSt16_Sp_counted_baseILN9__gnu_cxx12_Lock_policyE2EE10_M_destroyEv,@function
_ZNSt16_Sp_counted_baseILN9__gnu_cxx12_Lock_policyE2EE10_M_destroyEv: // @_ZNSt16_Sp_counted_baseILN9__gnu_cxx12_Lock_policyE2EE10_M_destroyEv
.Lfunc_begin94:
	.loc	22 141 0                        // /usr/bin/../lib/gcc/aarch64-linux-gnu/11/../../../../include/c++/11/bits/shared_ptr_base.h:141:0
	.cfi_startproc
// %bb.0:
	sub	sp, sp, #32
	stp	x29, x30, [sp, #16]             // 16-byte Folded Spill
	add	x29, sp, #16
	.cfi_def_cfa w29, 16
	.cfi_offset w30, -8
	.cfi_offset w29, -16
	str	x0, [sp, #8]
	ldr	x8, [sp, #8]
	str	x8, [sp]                        // 8-byte Folded Spill
.Ltmp294:
	.loc	22 141 9 prologue_end           // /usr/bin/../lib/gcc/aarch64-linux-gnu/11/../../../../include/c++/11/bits/shared_ptr_base.h:141:9
	cbz	x8, .LBB94_2
	b	.LBB94_1
.LBB94_1:
	.loc	22 0 9 is_stmt 0                // /usr/bin/../lib/gcc/aarch64-linux-gnu/11/../../../../include/c++/11/bits/shared_ptr_base.h:0:9
	ldr	x0, [sp]                        // 8-byte Folded Reload
	.loc	22 141 9                        // /usr/bin/../lib/gcc/aarch64-linux-gnu/11/../../../../include/c++/11/bits/shared_ptr_base.h:141:9
	ldr	x8, [x0]
	ldr	x8, [x8, #8]
	blr	x8
	b	.LBB94_2
.LBB94_2:
	.loc	22 141 22                       // /usr/bin/../lib/gcc/aarch64-linux-gnu/11/../../../../include/c++/11/bits/shared_ptr_base.h:141:22
	ldp	x29, x30, [sp, #16]             // 16-byte Folded Reload
	add	sp, sp, #32
	ret
.Ltmp295:
.Lfunc_end94:
	.size	_ZNSt16_Sp_counted_baseILN9__gnu_cxx12_Lock_policyE2EE10_M_destroyEv, .Lfunc_end94-_ZNSt16_Sp_counted_baseILN9__gnu_cxx12_Lock_policyE2EE10_M_destroyEv
	.cfi_endproc
                                        // -- End function
	.section	.text._ZNSt13unordered_mapImN3org9blobstore15BlobstoreClient4impl4BlobESt4hashImESt8equal_toImESaISt4pairIKmS4_EEED2Ev,"axG",@progbits,_ZNSt13unordered_mapImN3org9blobstore15BlobstoreClient4impl4BlobESt4hashImESt8equal_toImESaISt4pairIKmS4_EEED2Ev,comdat
	.weak	_ZNSt13unordered_mapImN3org9blobstore15BlobstoreClient4impl4BlobESt4hashImESt8equal_toImESaISt4pairIKmS4_EEED2Ev // -- Begin function _ZNSt13unordered_mapImN3org9blobstore15BlobstoreClient4impl4BlobESt4hashImESt8equal_toImESaISt4pairIKmS4_EEED2Ev
	.p2align	2
	.type	_ZNSt13unordered_mapImN3org9blobstore15BlobstoreClient4impl4BlobESt4hashImESt8equal_toImESaISt4pairIKmS4_EEED2Ev,@function
_ZNSt13unordered_mapImN3org9blobstore15BlobstoreClient4impl4BlobESt4hashImESt8equal_toImESaISt4pairIKmS4_EEED2Ev: // @_ZNSt13unordered_mapImN3org9blobstore15BlobstoreClient4impl4BlobESt4hashImESt8equal_toImESaISt4pairIKmS4_EEED2Ev
.Lfunc_begin95:
	.loc	21 102 0 is_stmt 1              // /usr/bin/../lib/gcc/aarch64-linux-gnu/11/../../../../include/c++/11/bits/unordered_map.h:102:0
	.cfi_startproc
// %bb.0:
	sub	sp, sp, #32
	stp	x29, x30, [sp, #16]             // 16-byte Folded Spill
	add	x29, sp, #16
	.cfi_def_cfa w29, 16
	.cfi_offset w30, -8
	.cfi_offset w29, -16
	str	x0, [sp, #8]
	ldr	x0, [sp, #8]
.Ltmp296:
	.loc	21 102 11 prologue_end          // /usr/bin/../lib/gcc/aarch64-linux-gnu/11/../../../../include/c++/11/bits/unordered_map.h:102:11
	bl	_ZNSt10_HashtableImSt4pairIKmN3org9blobstore15BlobstoreClient4impl4BlobEESaIS7_ENSt8__detail10_Select1stESt8equal_toImESt4hashImENS9_18_Mod_range_hashingENS9_20_Default_ranged_hashENS9_20_Prime_rehash_policyENS9_17_Hashtable_traitsILb0ELb0ELb1EEEED2Ev
.Ltmp297:
	.loc	21 102 11 is_stmt 0             // /usr/bin/../lib/gcc/aarch64-linux-gnu/11/../../../../include/c++/11/bits/unordered_map.h:102:11
	ldp	x29, x30, [sp, #16]             // 16-byte Folded Reload
	add	sp, sp, #32
	ret
.Ltmp298:
.Lfunc_end95:
	.size	_ZNSt13unordered_mapImN3org9blobstore15BlobstoreClient4impl4BlobESt4hashImESt8equal_toImESaISt4pairIKmS4_EEED2Ev, .Lfunc_end95-_ZNSt13unordered_mapImN3org9blobstore15BlobstoreClient4impl4BlobESt4hashImESt8equal_toImESaISt4pairIKmS4_EEED2Ev
	.cfi_endproc
                                        // -- End function
	.section	.text._ZNSt10_HashtableImSt4pairIKmN3org9blobstore15BlobstoreClient4impl4BlobEESaIS7_ENSt8__detail10_Select1stESt8equal_toImESt4hashImENS9_18_Mod_range_hashingENS9_20_Default_ranged_hashENS9_20_Prime_rehash_policyENS9_17_Hashtable_traitsILb0ELb0ELb1EEEED2Ev,"axG",@progbits,_ZNSt10_HashtableImSt4pairIKmN3org9blobstore15BlobstoreClient4impl4BlobEESaIS7_ENSt8__detail10_Select1stESt8equal_toImESt4hashImENS9_18_Mod_range_hashingENS9_20_Default_ranged_hashENS9_20_Prime_rehash_policyENS9_17_Hashtable_traitsILb0ELb0ELb1EEEED2Ev,comdat
	.weak	_ZNSt10_HashtableImSt4pairIKmN3org9blobstore15BlobstoreClient4impl4BlobEESaIS7_ENSt8__detail10_Select1stESt8equal_toImESt4hashImENS9_18_Mod_range_hashingENS9_20_Default_ranged_hashENS9_20_Prime_rehash_policyENS9_17_Hashtable_traitsILb0ELb0ELb1EEEED2Ev // -- Begin function _ZNSt10_HashtableImSt4pairIKmN3org9blobstore15BlobstoreClient4impl4BlobEESaIS7_ENSt8__detail10_Select1stESt8equal_toImESt4hashImENS9_18_Mod_range_hashingENS9_20_Default_ranged_hashENS9_20_Prime_rehash_policyENS9_17_Hashtable_traitsILb0ELb0ELb1EEEED2Ev
	.p2align	2
	.type	_ZNSt10_HashtableImSt4pairIKmN3org9blobstore15BlobstoreClient4impl4BlobEESaIS7_ENSt8__detail10_Select1stESt8equal_toImESt4hashImENS9_18_Mod_range_hashingENS9_20_Default_ranged_hashENS9_20_Prime_rehash_policyENS9_17_Hashtable_traitsILb0ELb0ELb1EEEED2Ev,@function
_ZNSt10_HashtableImSt4pairIKmN3org9blobstore15BlobstoreClient4impl4BlobEESaIS7_ENSt8__detail10_Select1stESt8equal_toImESt4hashImENS9_18_Mod_range_hashingENS9_20_Default_ranged_hashENS9_20_Prime_rehash_policyENS9_17_Hashtable_traitsILb0ELb0ELb1EEEED2Ev: // @_ZNSt10_HashtableImSt4pairIKmN3org9blobstore15BlobstoreClient4impl4BlobEESaIS7_ENSt8__detail10_Select1stESt8equal_toImESt4hashImENS9_18_Mod_range_hashingENS9_20_Default_ranged_hashENS9_20_Prime_rehash_policyENS9_17_Hashtable_traitsILb0ELb0ELb1EEEED2Ev
.Lfunc_begin96:
	.loc	20 1531 0 is_stmt 1             // /usr/bin/../lib/gcc/aarch64-linux-gnu/11/../../../../include/c++/11/bits/hashtable.h:1531:0
	.cfi_startproc
	.cfi_personality 156, DW.ref.__gxx_personality_v0
	.cfi_lsda 28, .Lexception11
// %bb.0:
	sub	sp, sp, #48
	stp	x29, x30, [sp, #32]             // 16-byte Folded Spill
	add	x29, sp, #32
	.cfi_def_cfa w29, 16
	.cfi_offset w30, -8
	.cfi_offset w29, -16
	stur	x0, [x29, #-8]
	ldur	x0, [x29, #-8]
	str	x0, [sp]                        // 8-byte Folded Spill
.Ltmp302:
	.loc	20 1532 7 prologue_end          // /usr/bin/../lib/gcc/aarch64-linux-gnu/11/../../../../include/c++/11/bits/hashtable.h:1532:7
	bl	_ZNSt10_HashtableImSt4pairIKmN3org9blobstore15BlobstoreClient4impl4BlobEESaIS7_ENSt8__detail10_Select1stESt8equal_toImESt4hashImENS9_18_Mod_range_hashingENS9_20_Default_ranged_hashENS9_20_Prime_rehash_policyENS9_17_Hashtable_traitsILb0ELb0ELb1EEEE5clearEv
	ldr	x0, [sp]                        // 8-byte Folded Reload
.Ltmp299:
	.loc	20 1533 7                       // /usr/bin/../lib/gcc/aarch64-linux-gnu/11/../../../../include/c++/11/bits/hashtable.h:1533:7
	bl	_ZNSt10_HashtableImSt4pairIKmN3org9blobstore15BlobstoreClient4impl4BlobEESaIS7_ENSt8__detail10_Select1stESt8equal_toImESt4hashImENS9_18_Mod_range_hashingENS9_20_Default_ranged_hashENS9_20_Prime_rehash_policyENS9_17_Hashtable_traitsILb0ELb0ELb1EEEE21_M_deallocate_bucketsEv
.Ltmp300:
	b	.LBB96_1
.LBB96_1:
	.loc	20 0 7 is_stmt 0                // /usr/bin/../lib/gcc/aarch64-linux-gnu/11/../../../../include/c++/11/bits/hashtable.h:0:7
	ldr	x0, [sp]                        // 8-byte Folded Reload
	.loc	20 1534 5 is_stmt 1             // /usr/bin/../lib/gcc/aarch64-linux-gnu/11/../../../../include/c++/11/bits/hashtable.h:1534:5
	bl	_ZNSt8__detail16_Hashtable_allocISaINS_10_Hash_nodeISt4pairIKmN3org9blobstore15BlobstoreClient4impl4BlobEELb0EEEEED2Ev
.Ltmp303:
	.loc	20 1534 5 is_stmt 0             // /usr/bin/../lib/gcc/aarch64-linux-gnu/11/../../../../include/c++/11/bits/hashtable.h:1534:5
